
zephyr.elf:     file format elf32-littlearm


Disassembly of section rom_start:

08051400 <_vector_table>:
 8051400:	88 28 00 20 19 27 05 08 91 26 05 08 51 27 05 08     .(. .'...&..Q'..
 8051410:	51 27 05 08 51 27 05 08 51 27 05 08 51 27 05 08     Q'..Q'..Q'..Q'..
	...
 805142c:	79 25 05 08 51 27 05 08 00 00 00 00 2d 25 05 08     y%..Q'......-%..
 805143c:	69 23 05 08                                         i#..

08051440 <_irq_vector_table>:
 8051440:	f1 26 05 08 f1 26 05 08 f1 26 05 08 f1 26 05 08     .&...&...&...&..
 8051450:	f1 26 05 08 f1 26 05 08 f1 26 05 08 f1 26 05 08     .&...&...&...&..
 8051460:	f1 26 05 08 f1 26 05 08 f1 26 05 08 f1 26 05 08     .&...&...&...&..
 8051470:	f1 26 05 08 f1 26 05 08 f1 26 05 08 f1 26 05 08     .&...&...&...&..
 8051480:	f1 26 05 08 f1 26 05 08 f1 26 05 08 f1 26 05 08     .&...&...&...&..
 8051490:	f1 26 05 08 f1 26 05 08 f1 26 05 08 f1 26 05 08     .&...&...&...&..
 80514a0:	f1 26 05 08 f1 26 05 08 f1 26 05 08 f1 26 05 08     .&...&...&...&..
 80514b0:	f1 26 05 08 f1 26 05 08 f1 26 05 08 f1 26 05 08     .&...&...&...&..
 80514c0:	f1 26 05 08 f1 26 05 08 f1 26 05 08 f1 26 05 08     .&...&...&...&..
 80514d0:	f1 26 05 08 f1 26 05 08 f1 26 05 08 f1 26 05 08     .&...&...&...&..
 80514e0:	f1 26 05 08 f1 26 05 08 f1 26 05 08 f1 26 05 08     .&...&...&...&..
 80514f0:	f1 26 05 08 f1 26 05 08 f1 26 05 08 f1 26 05 08     .&...&...&...&..
 8051500:	f1 26 05 08 f1 26 05 08 f1 26 05 08 f1 26 05 08     .&...&...&...&..
 8051510:	f1 26 05 08 f1 26 05 08 f1 26 05 08 f1 26 05 08     .&...&...&...&..
 8051520:	f1 26 05 08 f1 26 05 08 f1 26 05 08 f1 26 05 08     .&...&...&...&..
 8051530:	f1 26 05 08 f1 26 05 08 f1 26 05 08 f1 26 05 08     .&...&...&...&..
 8051540:	f1 26 05 08 f1 26 05 08 f1 26 05 08 f1 26 05 08     .&...&...&...&..
 8051550:	f1 26 05 08 f1 26 05 08 f1 26 05 08 f1 26 05 08     .&...&...&...&..
 8051560:	f1 26 05 08 f1 26 05 08 f1 26 05 08 f1 26 05 08     .&...&...&...&..
 8051570:	f1 26 05 08 f1 26 05 08 f1 26 05 08 f1 26 05 08     .&...&...&...&..
 8051580:	f1 26 05 08 f1 26 05 08 f1 26 05 08 f1 26 05 08     .&...&...&...&..
 8051590:	f1 26 05 08 f1 26 05 08 f1 26 05 08 f1 26 05 08     .&...&...&...&..
 80515a0:	f1 26 05 08 f1 26 05 08 f1 26 05 08 f1 26 05 08     .&...&...&...&..
 80515b0:	f1 26 05 08 f1 26 05 08 f1 26 05 08 f1 26 05 08     .&...&...&...&..
 80515c0:	f1 26 05 08 f1 26 05 08 f1 26 05 08 f1 26 05 08     .&...&...&...&..
 80515d0:	f1 26 05 08 f1 26 05 08 f1 26 05 08 f1 26 05 08     .&...&...&...&..
 80515e0:	f1 26 05 08 f1 26 05 08 f1 26 05 08 f1 26 05 08     .&...&...&...&..

Disassembly of section text:

080515f0 <__aeabi_uldivmod>:
 80515f0:	b953      	cbnz	r3, 8051608 <__aeabi_uldivmod+0x18>
 80515f2:	b94a      	cbnz	r2, 8051608 <__aeabi_uldivmod+0x18>
 80515f4:	2900      	cmp	r1, #0
 80515f6:	bf08      	it	eq
 80515f8:	2800      	cmpeq	r0, #0
 80515fa:	bf1c      	itt	ne
 80515fc:	f04f 31ff 	movne.w	r1, #4294967295	; 0xffffffff
 8051600:	f04f 30ff 	movne.w	r0, #4294967295	; 0xffffffff
 8051604:	f000 b96e 	b.w	80518e4 <__aeabi_idiv0>
 8051608:	f1ad 0c08 	sub.w	ip, sp, #8
 805160c:	e96d ce04 	strd	ip, lr, [sp, #-16]!
 8051610:	f000 f806 	bl	8051620 <__udivmoddi4>
 8051614:	f8dd e004 	ldr.w	lr, [sp, #4]
 8051618:	e9dd 2302 	ldrd	r2, r3, [sp, #8]
 805161c:	b004      	add	sp, #16
 805161e:	4770      	bx	lr

08051620 <__udivmoddi4>:
 8051620:	e92d 4ff0 	stmdb	sp!, {r4, r5, r6, r7, r8, r9, sl, fp, lr}
 8051624:	9d09      	ldr	r5, [sp, #36]	; 0x24
 8051626:	460f      	mov	r7, r1
 8051628:	4604      	mov	r4, r0
 805162a:	4689      	mov	r9, r1
 805162c:	2b00      	cmp	r3, #0
 805162e:	d17c      	bne.n	805172a <__udivmoddi4+0x10a>
 8051630:	428a      	cmp	r2, r1
 8051632:	4616      	mov	r6, r2
 8051634:	d940      	bls.n	80516b8 <__udivmoddi4+0x98>
 8051636:	fab2 f282 	clz	r2, r2
 805163a:	b14a      	cbz	r2, 8051650 <__udivmoddi4+0x30>
 805163c:	f1c2 0120 	rsb	r1, r2, #32
 8051640:	fa07 f302 	lsl.w	r3, r7, r2
 8051644:	4096      	lsls	r6, r2
 8051646:	4094      	lsls	r4, r2
 8051648:	fa20 f101 	lsr.w	r1, r0, r1
 805164c:	ea41 0903 	orr.w	r9, r1, r3
 8051650:	ea4f 4e16 	mov.w	lr, r6, lsr #16
 8051654:	0c27      	lsrs	r7, r4, #16
 8051656:	fa1f f886 	uxth.w	r8, r6
 805165a:	fbb9 fcfe 	udiv	ip, r9, lr
 805165e:	fb0e 931c 	mls	r3, lr, ip, r9
 8051662:	fb0c f108 	mul.w	r1, ip, r8
 8051666:	ea47 4303 	orr.w	r3, r7, r3, lsl #16
 805166a:	4299      	cmp	r1, r3
 805166c:	d906      	bls.n	805167c <__udivmoddi4+0x5c>
 805166e:	18f3      	adds	r3, r6, r3
 8051670:	d202      	bcs.n	8051678 <__udivmoddi4+0x58>
 8051672:	4299      	cmp	r1, r3
 8051674:	f200 8123 	bhi.w	80518be <__udivmoddi4+0x29e>
 8051678:	f10c 3cff 	add.w	ip, ip, #4294967295	; 0xffffffff
 805167c:	1a59      	subs	r1, r3, r1
 805167e:	b2a3      	uxth	r3, r4
 8051680:	fbb1 f0fe 	udiv	r0, r1, lr
 8051684:	fb0e 1110 	mls	r1, lr, r0, r1
 8051688:	fb00 f808 	mul.w	r8, r0, r8
 805168c:	ea43 4401 	orr.w	r4, r3, r1, lsl #16
 8051690:	45a0      	cmp	r8, r4
 8051692:	d905      	bls.n	80516a0 <__udivmoddi4+0x80>
 8051694:	1934      	adds	r4, r6, r4
 8051696:	d202      	bcs.n	805169e <__udivmoddi4+0x7e>
 8051698:	45a0      	cmp	r8, r4
 805169a:	f200 810d 	bhi.w	80518b8 <__udivmoddi4+0x298>
 805169e:	3801      	subs	r0, #1
 80516a0:	eba4 0408 	sub.w	r4, r4, r8
 80516a4:	ea40 400c 	orr.w	r0, r0, ip, lsl #16
 80516a8:	2100      	movs	r1, #0
 80516aa:	b11d      	cbz	r5, 80516b4 <__udivmoddi4+0x94>
 80516ac:	40d4      	lsrs	r4, r2
 80516ae:	2300      	movs	r3, #0
 80516b0:	e9c5 4300 	strd	r4, r3, [r5]
 80516b4:	e8bd 8ff0 	ldmia.w	sp!, {r4, r5, r6, r7, r8, r9, sl, fp, pc}
 80516b8:	b902      	cbnz	r2, 80516bc <__udivmoddi4+0x9c>
 80516ba:	deff      	udf	#255	; 0xff
 80516bc:	fab2 f282 	clz	r2, r2
 80516c0:	2a00      	cmp	r2, #0
 80516c2:	d14d      	bne.n	8051760 <__udivmoddi4+0x140>
 80516c4:	1b8f      	subs	r7, r1, r6
 80516c6:	ea4f 4e16 	mov.w	lr, r6, lsr #16
 80516ca:	fa1f f886 	uxth.w	r8, r6
 80516ce:	2101      	movs	r1, #1
 80516d0:	0c23      	lsrs	r3, r4, #16
 80516d2:	fbb7 fcfe 	udiv	ip, r7, lr
 80516d6:	fb0e 771c 	mls	r7, lr, ip, r7
 80516da:	fb08 f00c 	mul.w	r0, r8, ip
 80516de:	ea43 4307 	orr.w	r3, r3, r7, lsl #16
 80516e2:	4298      	cmp	r0, r3
 80516e4:	d90a      	bls.n	80516fc <__udivmoddi4+0xdc>
 80516e6:	18f3      	adds	r3, r6, r3
 80516e8:	bf2c      	ite	cs
 80516ea:	2701      	movcs	r7, #1
 80516ec:	2700      	movcc	r7, #0
 80516ee:	4298      	cmp	r0, r3
 80516f0:	d902      	bls.n	80516f8 <__udivmoddi4+0xd8>
 80516f2:	2f00      	cmp	r7, #0
 80516f4:	f000 80d9 	beq.w	80518aa <__udivmoddi4+0x28a>
 80516f8:	f10c 3cff 	add.w	ip, ip, #4294967295	; 0xffffffff
 80516fc:	1a1f      	subs	r7, r3, r0
 80516fe:	b2a3      	uxth	r3, r4
 8051700:	fbb7 f0fe 	udiv	r0, r7, lr
 8051704:	fb0e 7710 	mls	r7, lr, r0, r7
 8051708:	fb08 f800 	mul.w	r8, r8, r0
 805170c:	ea43 4407 	orr.w	r4, r3, r7, lsl #16
 8051710:	45a0      	cmp	r8, r4
 8051712:	d905      	bls.n	8051720 <__udivmoddi4+0x100>
 8051714:	1934      	adds	r4, r6, r4
 8051716:	d202      	bcs.n	805171e <__udivmoddi4+0xfe>
 8051718:	45a0      	cmp	r8, r4
 805171a:	f200 80ca 	bhi.w	80518b2 <__udivmoddi4+0x292>
 805171e:	3801      	subs	r0, #1
 8051720:	eba4 0408 	sub.w	r4, r4, r8
 8051724:	ea40 400c 	orr.w	r0, r0, ip, lsl #16
 8051728:	e7bf      	b.n	80516aa <__udivmoddi4+0x8a>
 805172a:	428b      	cmp	r3, r1
 805172c:	d908      	bls.n	8051740 <__udivmoddi4+0x120>
 805172e:	2d00      	cmp	r5, #0
 8051730:	f000 80b2 	beq.w	8051898 <__udivmoddi4+0x278>
 8051734:	2100      	movs	r1, #0
 8051736:	e9c5 0700 	strd	r0, r7, [r5]
 805173a:	4608      	mov	r0, r1
 805173c:	e8bd 8ff0 	ldmia.w	sp!, {r4, r5, r6, r7, r8, r9, sl, fp, pc}
 8051740:	fab3 f183 	clz	r1, r3
 8051744:	2900      	cmp	r1, #0
 8051746:	d149      	bne.n	80517dc <__udivmoddi4+0x1bc>
 8051748:	42bb      	cmp	r3, r7
 805174a:	f0c0 80a8 	bcc.w	805189e <__udivmoddi4+0x27e>
 805174e:	4282      	cmp	r2, r0
 8051750:	f240 80a5 	bls.w	805189e <__udivmoddi4+0x27e>
 8051754:	4608      	mov	r0, r1
 8051756:	2d00      	cmp	r5, #0
 8051758:	d0ac      	beq.n	80516b4 <__udivmoddi4+0x94>
 805175a:	e9c5 4900 	strd	r4, r9, [r5]
 805175e:	e7a9      	b.n	80516b4 <__udivmoddi4+0x94>
 8051760:	f1c2 0020 	rsb	r0, r2, #32
 8051764:	4096      	lsls	r6, r2
 8051766:	4091      	lsls	r1, r2
 8051768:	fa27 f300 	lsr.w	r3, r7, r0
 805176c:	ea4f 4e16 	mov.w	lr, r6, lsr #16
 8051770:	fa24 f700 	lsr.w	r7, r4, r0
 8051774:	fa1f f886 	uxth.w	r8, r6
 8051778:	4094      	lsls	r4, r2
 805177a:	430f      	orrs	r7, r1
 805177c:	fbb3 f0fe 	udiv	r0, r3, lr
 8051780:	ea4f 4c17 	mov.w	ip, r7, lsr #16
 8051784:	fb0e 3310 	mls	r3, lr, r0, r3
 8051788:	fb00 f108 	mul.w	r1, r0, r8
 805178c:	ea4c 4303 	orr.w	r3, ip, r3, lsl #16
 8051790:	4299      	cmp	r1, r3
 8051792:	d90c      	bls.n	80517ae <__udivmoddi4+0x18e>
 8051794:	18f3      	adds	r3, r6, r3
 8051796:	bf2c      	ite	cs
 8051798:	f04f 0c01 	movcs.w	ip, #1
 805179c:	f04f 0c00 	movcc.w	ip, #0
 80517a0:	4299      	cmp	r1, r3
 80517a2:	d903      	bls.n	80517ac <__udivmoddi4+0x18c>
 80517a4:	f1bc 0f00 	cmp.w	ip, #0
 80517a8:	f000 8092 	beq.w	80518d0 <__udivmoddi4+0x2b0>
 80517ac:	3801      	subs	r0, #1
 80517ae:	1a5b      	subs	r3, r3, r1
 80517b0:	b2bf      	uxth	r7, r7
 80517b2:	fbb3 f1fe 	udiv	r1, r3, lr
 80517b6:	fb0e 3311 	mls	r3, lr, r1, r3
 80517ba:	fb01 fc08 	mul.w	ip, r1, r8
 80517be:	ea47 4703 	orr.w	r7, r7, r3, lsl #16
 80517c2:	45bc      	cmp	ip, r7
 80517c4:	d905      	bls.n	80517d2 <__udivmoddi4+0x1b2>
 80517c6:	19f7      	adds	r7, r6, r7
 80517c8:	d202      	bcs.n	80517d0 <__udivmoddi4+0x1b0>
 80517ca:	45bc      	cmp	ip, r7
 80517cc:	f200 8087 	bhi.w	80518de <__udivmoddi4+0x2be>
 80517d0:	3901      	subs	r1, #1
 80517d2:	eba7 070c 	sub.w	r7, r7, ip
 80517d6:	ea41 4100 	orr.w	r1, r1, r0, lsl #16
 80517da:	e779      	b.n	80516d0 <__udivmoddi4+0xb0>
 80517dc:	f1c1 0620 	rsb	r6, r1, #32
 80517e0:	fa03 f401 	lsl.w	r4, r3, r1
 80517e4:	fa02 fc01 	lsl.w	ip, r2, r1
 80517e8:	fa07 f801 	lsl.w	r8, r7, r1
 80517ec:	40f2      	lsrs	r2, r6
 80517ee:	fa27 f306 	lsr.w	r3, r7, r6
 80517f2:	fa20 f706 	lsr.w	r7, r0, r6
 80517f6:	fa00 fe01 	lsl.w	lr, r0, r1
 80517fa:	4322      	orrs	r2, r4
 80517fc:	ea47 0408 	orr.w	r4, r7, r8
 8051800:	ea4f 4812 	mov.w	r8, r2, lsr #16
 8051804:	0c20      	lsrs	r0, r4, #16
 8051806:	fa1f f982 	uxth.w	r9, r2
 805180a:	fbb3 faf8 	udiv	sl, r3, r8
 805180e:	fb08 371a 	mls	r7, r8, sl, r3
 8051812:	fb0a fb09 	mul.w	fp, sl, r9
 8051816:	ea40 4707 	orr.w	r7, r0, r7, lsl #16
 805181a:	45bb      	cmp	fp, r7
 805181c:	d909      	bls.n	8051832 <__udivmoddi4+0x212>
 805181e:	19d7      	adds	r7, r2, r7
 8051820:	bf2c      	ite	cs
 8051822:	2301      	movcs	r3, #1
 8051824:	2300      	movcc	r3, #0
 8051826:	45bb      	cmp	fp, r7
 8051828:	d901      	bls.n	805182e <__udivmoddi4+0x20e>
 805182a:	2b00      	cmp	r3, #0
 805182c:	d053      	beq.n	80518d6 <__udivmoddi4+0x2b6>
 805182e:	f10a 3aff 	add.w	sl, sl, #4294967295	; 0xffffffff
 8051832:	eba7 070b 	sub.w	r7, r7, fp
 8051836:	b2a4      	uxth	r4, r4
 8051838:	fbb7 f0f8 	udiv	r0, r7, r8
 805183c:	fb08 7710 	mls	r7, r8, r0, r7
 8051840:	fb00 f909 	mul.w	r9, r0, r9
 8051844:	ea44 4707 	orr.w	r7, r4, r7, lsl #16
 8051848:	45b9      	cmp	r9, r7
 805184a:	d904      	bls.n	8051856 <__udivmoddi4+0x236>
 805184c:	19d7      	adds	r7, r2, r7
 805184e:	d201      	bcs.n	8051854 <__udivmoddi4+0x234>
 8051850:	45b9      	cmp	r9, r7
 8051852:	d83a      	bhi.n	80518ca <__udivmoddi4+0x2aa>
 8051854:	3801      	subs	r0, #1
 8051856:	ea40 400a 	orr.w	r0, r0, sl, lsl #16
 805185a:	eba7 0709 	sub.w	r7, r7, r9
 805185e:	fba0 890c 	umull	r8, r9, r0, ip
 8051862:	454f      	cmp	r7, r9
 8051864:	46c3      	mov	fp, r8
 8051866:	464c      	mov	r4, r9
 8051868:	d302      	bcc.n	8051870 <__udivmoddi4+0x250>
 805186a:	d107      	bne.n	805187c <__udivmoddi4+0x25c>
 805186c:	45c6      	cmp	lr, r8
 805186e:	d205      	bcs.n	805187c <__udivmoddi4+0x25c>
 8051870:	ebb8 0b0c 	subs.w	fp, r8, ip
 8051874:	eb69 0202 	sbc.w	r2, r9, r2
 8051878:	3801      	subs	r0, #1
 805187a:	4614      	mov	r4, r2
 805187c:	b31d      	cbz	r5, 80518c6 <__udivmoddi4+0x2a6>
 805187e:	ebbe 030b 	subs.w	r3, lr, fp
 8051882:	eb67 0704 	sbc.w	r7, r7, r4
 8051886:	fa07 f606 	lsl.w	r6, r7, r6
 805188a:	40cb      	lsrs	r3, r1
 805188c:	40cf      	lsrs	r7, r1
 805188e:	2100      	movs	r1, #0
 8051890:	431e      	orrs	r6, r3
 8051892:	e9c5 6700 	strd	r6, r7, [r5]
 8051896:	e70d      	b.n	80516b4 <__udivmoddi4+0x94>
 8051898:	4629      	mov	r1, r5
 805189a:	4628      	mov	r0, r5
 805189c:	e70a      	b.n	80516b4 <__udivmoddi4+0x94>
 805189e:	1a84      	subs	r4, r0, r2
 80518a0:	eb67 0303 	sbc.w	r3, r7, r3
 80518a4:	2001      	movs	r0, #1
 80518a6:	4699      	mov	r9, r3
 80518a8:	e755      	b.n	8051756 <__udivmoddi4+0x136>
 80518aa:	f1ac 0c02 	sub.w	ip, ip, #2
 80518ae:	4433      	add	r3, r6
 80518b0:	e724      	b.n	80516fc <__udivmoddi4+0xdc>
 80518b2:	3802      	subs	r0, #2
 80518b4:	4434      	add	r4, r6
 80518b6:	e733      	b.n	8051720 <__udivmoddi4+0x100>
 80518b8:	3802      	subs	r0, #2
 80518ba:	4434      	add	r4, r6
 80518bc:	e6f0      	b.n	80516a0 <__udivmoddi4+0x80>
 80518be:	f1ac 0c02 	sub.w	ip, ip, #2
 80518c2:	4433      	add	r3, r6
 80518c4:	e6da      	b.n	805167c <__udivmoddi4+0x5c>
 80518c6:	4629      	mov	r1, r5
 80518c8:	e6f4      	b.n	80516b4 <__udivmoddi4+0x94>
 80518ca:	3802      	subs	r0, #2
 80518cc:	4417      	add	r7, r2
 80518ce:	e7c2      	b.n	8051856 <__udivmoddi4+0x236>
 80518d0:	3802      	subs	r0, #2
 80518d2:	4433      	add	r3, r6
 80518d4:	e76b      	b.n	80517ae <__udivmoddi4+0x18e>
 80518d6:	f1aa 0a02 	sub.w	sl, sl, #2
 80518da:	4417      	add	r7, r2
 80518dc:	e7a9      	b.n	8051832 <__udivmoddi4+0x212>
 80518de:	3902      	subs	r1, #2
 80518e0:	4437      	add	r7, r6
 80518e2:	e776      	b.n	80517d2 <__udivmoddi4+0x1b2>

080518e4 <__aeabi_idiv0>:
 80518e4:	4770      	bx	lr
 80518e6:	bf00      	nop

080518e8 <tfm_ipc_test_1004>:
 80518e8:	b530      	push	{r4, r5, lr}
 80518ea:	b0cf      	sub	sp, #316	; 0x13c
 80518ec:	4670      	mov	r0, lr
 80518ee:	f003 fa4b 	bl	8054d88 <__enter_veneer_veneer>
 80518f2:	aa02      	add	r2, sp, #8
 80518f4:	9206      	str	r2, [sp, #24]
 80518f6:	2205      	movs	r2, #5
 80518f8:	4b22      	ldr	r3, [pc, #136]	; (8051984 <tfm_ipc_test_1004+0x9c>)
 80518fa:	4923      	ldr	r1, [pc, #140]	; (8051988 <tfm_ipc_test_1004+0xa0>)
 80518fc:	6818      	ldr	r0, [r3, #0]
 80518fe:	791b      	ldrb	r3, [r3, #4]
 8051900:	9002      	str	r0, [sp, #8]
 8051902:	f88d 300c 	strb.w	r3, [sp, #12]
 8051906:	ab04      	add	r3, sp, #16
 8051908:	e9cd 2307 	strd	r2, r3, [sp, #28]
 805190c:	ab0e      	add	r3, sp, #56	; 0x38
 805190e:	930a      	str	r3, [sp, #40]	; 0x28
 8051910:	2380      	movs	r3, #128	; 0x80
 8051912:	6808      	ldr	r0, [r1, #0]
 8051914:	7909      	ldrb	r1, [r1, #4]
 8051916:	9004      	str	r0, [sp, #16]
 8051918:	9209      	str	r2, [sp, #36]	; 0x24
 805191a:	f24f 0080 	movw	r0, #61568	; 0xf080
 805191e:	aa2e      	add	r2, sp, #184	; 0xb8
 8051920:	e9cd 230c 	strd	r2, r3, [sp, #48]	; 0x30
 8051924:	930b      	str	r3, [sp, #44]	; 0x2c
 8051926:	f88d 1014 	strb.w	r1, [sp, #20]
 805192a:	f002 f9a9 	bl	8053c80 <psa_version>
 805192e:	4601      	mov	r1, r0
 8051930:	4816      	ldr	r0, [pc, #88]	; (805198c <tfm_ipc_test_1004+0xa4>)
 8051932:	f002 f9f6 	bl	8053d22 <printk>
 8051936:	2101      	movs	r1, #1
 8051938:	f24f 0080 	movw	r0, #61568	; 0xf080
 805193c:	f002 f9ae 	bl	8053c9c <psa_connect>
 8051940:	2302      	movs	r3, #2
 8051942:	ac0a      	add	r4, sp, #40	; 0x28
 8051944:	2100      	movs	r1, #0
 8051946:	e9cd 4300 	strd	r4, r3, [sp]
 805194a:	aa06      	add	r2, sp, #24
 805194c:	4605      	mov	r5, r0
 805194e:	f002 f9b3 	bl	8053cb8 <psa_call>
 8051952:	2800      	cmp	r0, #0
 8051954:	db12      	blt.n	805197c <tfm_ipc_test_1004+0x94>
 8051956:	480e      	ldr	r0, [pc, #56]	; (8051990 <tfm_ipc_test_1004+0xa8>)
 8051958:	f002 f9e3 	bl	8053d22 <printk>
 805195c:	6821      	ldr	r1, [r4, #0]
 805195e:	480d      	ldr	r0, [pc, #52]	; (8051994 <tfm_ipc_test_1004+0xac>)
 8051960:	f002 f9df 	bl	8053d22 <printk>
 8051964:	480c      	ldr	r0, [pc, #48]	; (8051998 <tfm_ipc_test_1004+0xb0>)
 8051966:	68a1      	ldr	r1, [r4, #8]
 8051968:	f002 f9db 	bl	8053d22 <printk>
 805196c:	4628      	mov	r0, r5
 805196e:	f002 f9b5 	bl	8053cdc <psa_close>
 8051972:	4670      	mov	r0, lr
 8051974:	f003 fa10 	bl	8054d98 <__exit_veneer_veneer>
 8051978:	b04f      	add	sp, #316	; 0x13c
 805197a:	bd30      	pop	{r4, r5, pc}
 805197c:	4807      	ldr	r0, [pc, #28]	; (805199c <tfm_ipc_test_1004+0xb4>)
 805197e:	f002 f9d0 	bl	8053d22 <printk>
 8051982:	e7f6      	b.n	8051972 <tfm_ipc_test_1004+0x8a>
 8051984:	08055394 	.word	0x08055394
 8051988:	08055399 	.word	0x08055399
 805198c:	08055322 	.word	0x08055322
 8051990:	08055346 	.word	0x08055346
 8051994:	0805535f 	.word	0x0805535f
 8051998:	0805536f 	.word	0x0805536f
 805199c:	0805537f 	.word	0x0805537f

080519a0 <tfm_ns_interface_dispatch>:
 80519a0:	b5f8      	push	{r3, r4, r5, r6, r7, lr}
 80519a2:	4604      	mov	r4, r0
 80519a4:	460d      	mov	r5, r1
 80519a6:	4616      	mov	r6, r2
 80519a8:	461f      	mov	r7, r3
 80519aa:	4670      	mov	r0, lr
 80519ac:	f003 f9ec 	bl	8054d88 <__enter_veneer_veneer>
 80519b0:	f04f 32ff 	mov.w	r2, #4294967295	; 0xffffffff
 80519b4:	f04f 33ff 	mov.w	r3, #4294967295	; 0xffffffff
 80519b8:	480c      	ldr	r0, [pc, #48]	; (80519ec <tfm_ns_interface_dispatch+0x4c>)
 80519ba:	f001 fc4d 	bl	8053258 <z_impl_k_mutex_lock>
 80519be:	4670      	mov	r0, lr
 80519c0:	f003 f9ea 	bl	8054d98 <__exit_veneer_veneer>
 80519c4:	b980      	cbnz	r0, 80519e8 <tfm_ns_interface_dispatch+0x48>
 80519c6:	463a      	mov	r2, r7
 80519c8:	4631      	mov	r1, r6
 80519ca:	4628      	mov	r0, r5
 80519cc:	9b06      	ldr	r3, [sp, #24]
 80519ce:	47a0      	blx	r4
 80519d0:	4604      	mov	r4, r0
 80519d2:	4670      	mov	r0, lr
 80519d4:	f003 f9d8 	bl	8054d88 <__enter_veneer_veneer>
 80519d8:	4804      	ldr	r0, [pc, #16]	; (80519ec <tfm_ns_interface_dispatch+0x4c>)
 80519da:	f001 fcb5 	bl	8053348 <z_impl_k_mutex_unlock>
 80519de:	4670      	mov	r0, lr
 80519e0:	f003 f9da 	bl	8054d98 <__exit_veneer_veneer>
 80519e4:	4620      	mov	r0, r4
 80519e6:	bdf8      	pop	{r3, r4, r5, r6, r7, pc}
 80519e8:	241f      	movs	r4, #31
 80519ea:	e7fb      	b.n	80519e4 <tfm_ns_interface_dispatch+0x44>
 80519ec:	200001cc 	.word	0x200001cc

080519f0 <add>:
 80519f0:	f242 314d 	movw	r1, #9037	; 0x234d
 80519f4:	4a03      	ldr	r2, [pc, #12]	; (8051a04 <add+0x14>)
 80519f6:	6813      	ldr	r3, [r2, #0]
 80519f8:	3301      	adds	r3, #1
 80519fa:	6013      	str	r3, [r2, #0]
 80519fc:	4a02      	ldr	r2, [pc, #8]	; (8051a08 <add+0x18>)
 80519fe:	f842 1023 	str.w	r1, [r2, r3, lsl #2]
 8051a02:	4770      	bx	lr
 8051a04:	20000000 	.word	0x20000000
 8051a08:	20000358 	.word	0x20000358

08051a0c <main>:
 8051a0c:	b510      	push	{r4, lr}
 8051a0e:	b088      	sub	sp, #32
 8051a10:	4670      	mov	r0, lr
 8051a12:	f003 f9b9 	bl	8054d88 <__enter_veneer_veneer>
 8051a16:	4b54      	ldr	r3, [pc, #336]	; (8051b68 <main+0x15c>)
 8051a18:	4854      	ldr	r0, [pc, #336]	; (8051b6c <main+0x160>)
 8051a1a:	6819      	ldr	r1, [r3, #0]
 8051a1c:	f7ff ffe8 	bl	80519f0 <add>
 8051a20:	4670      	mov	r0, lr
 8051a22:	f003 f9b1 	bl	8054d88 <__enter_veneer_veneer>
 8051a26:	f002 f91d 	bl	8053c64 <psa_framework_version>
 8051a2a:	f5b0 7f80 	cmp.w	r0, #256	; 0x100
 8051a2e:	4601      	mov	r1, r0
 8051a30:	d14c      	bne.n	8051acc <main+0xc0>
 8051a32:	484f      	ldr	r0, [pc, #316]	; (8051b70 <main+0x164>)
 8051a34:	f002 f975 	bl	8053d22 <printk>
 8051a38:	4670      	mov	r0, lr
 8051a3a:	f003 f9ad 	bl	8054d98 <__exit_veneer_veneer>
 8051a3e:	4670      	mov	r0, lr
 8051a40:	f003 f9a2 	bl	8054d88 <__enter_veneer_veneer>
 8051a44:	f24f 0080 	movw	r0, #61568	; 0xf080
 8051a48:	f002 f91a 	bl	8053c80 <psa_version>
 8051a4c:	4601      	mov	r1, r0
 8051a4e:	2800      	cmp	r0, #0
 8051a50:	d140      	bne.n	8051ad4 <main+0xc8>
 8051a52:	4848      	ldr	r0, [pc, #288]	; (8051b74 <main+0x168>)
 8051a54:	f002 f965 	bl	8053d22 <printk>
 8051a58:	4847      	ldr	r0, [pc, #284]	; (8051b78 <main+0x16c>)
 8051a5a:	f002 f962 	bl	8053d22 <printk>
 8051a5e:	4670      	mov	r0, lr
 8051a60:	f003 f99a 	bl	8054d98 <__exit_veneer_veneer>
 8051a64:	4670      	mov	r0, lr
 8051a66:	f003 f98f 	bl	8054d88 <__enter_veneer_veneer>
 8051a6a:	2101      	movs	r1, #1
 8051a6c:	f24f 0080 	movw	r0, #61568	; 0xf080
 8051a70:	f002 f914 	bl	8053c9c <psa_connect>
 8051a74:	1e04      	subs	r4, r0, #0
 8051a76:	dd31      	ble.n	8051adc <main+0xd0>
 8051a78:	4840      	ldr	r0, [pc, #256]	; (8051b7c <main+0x170>)
 8051a7a:	f002 f952 	bl	8053d22 <printk>
 8051a7e:	4620      	mov	r0, r4
 8051a80:	f002 f92c 	bl	8053cdc <psa_close>
 8051a84:	4670      	mov	r0, lr
 8051a86:	f003 f987 	bl	8054d98 <__exit_veneer_veneer>
 8051a8a:	f7ff ff2d 	bl	80518e8 <tfm_ipc_test_1004>
 8051a8e:	4670      	mov	r0, lr
 8051a90:	f003 f97a 	bl	8054d88 <__enter_veneer_veneer>
 8051a94:	ab03      	add	r3, sp, #12
 8051a96:	9306      	str	r3, [sp, #24]
 8051a98:	2304      	movs	r3, #4
 8051a9a:	2101      	movs	r1, #1
 8051a9c:	f24f 0060 	movw	r0, #61536	; 0xf060
 8051aa0:	9307      	str	r3, [sp, #28]
 8051aa2:	f002 f8fb 	bl	8053c9c <psa_connect>
 8051aa6:	1e04      	subs	r4, r0, #0
 8051aa8:	dd1c      	ble.n	8051ae4 <main+0xd8>
 8051aaa:	4834      	ldr	r0, [pc, #208]	; (8051b7c <main+0x170>)
 8051aac:	f002 f939 	bl	8053d22 <printk>
 8051ab0:	2301      	movs	r3, #1
 8051ab2:	9301      	str	r3, [sp, #4]
 8051ab4:	ab06      	add	r3, sp, #24
 8051ab6:	9300      	str	r3, [sp, #0]
 8051ab8:	2300      	movs	r3, #0
 8051aba:	4620      	mov	r0, r4
 8051abc:	461a      	mov	r2, r3
 8051abe:	4619      	mov	r1, r3
 8051ac0:	f002 f8fa 	bl	8053cb8 <psa_call>
 8051ac4:	2800      	cmp	r0, #0
 8051ac6:	da32      	bge.n	8051b2e <main+0x122>
 8051ac8:	482d      	ldr	r0, [pc, #180]	; (8051b80 <main+0x174>)
 8051aca:	e031      	b.n	8051b30 <main+0x124>
 8051acc:	482d      	ldr	r0, [pc, #180]	; (8051b84 <main+0x178>)
 8051ace:	f002 f928 	bl	8053d22 <printk>
 8051ad2:	e7b1      	b.n	8051a38 <main+0x2c>
 8051ad4:	482c      	ldr	r0, [pc, #176]	; (8051b88 <main+0x17c>)
 8051ad6:	f002 f924 	bl	8053d22 <printk>
 8051ada:	e7c0      	b.n	8051a5e <main+0x52>
 8051adc:	482b      	ldr	r0, [pc, #172]	; (8051b8c <main+0x180>)
 8051ade:	f002 f920 	bl	8053d22 <printk>
 8051ae2:	e7cf      	b.n	8051a84 <main+0x78>
 8051ae4:	4829      	ldr	r0, [pc, #164]	; (8051b8c <main+0x180>)
 8051ae6:	f002 f91c 	bl	8053d22 <printk>
 8051aea:	4670      	mov	r0, lr
 8051aec:	f003 f954 	bl	8054d98 <__exit_veneer_veneer>
 8051af0:	4670      	mov	r0, lr
 8051af2:	f003 f949 	bl	8054d88 <__enter_veneer_veneer>
 8051af6:	ab02      	add	r3, sp, #8
 8051af8:	9304      	str	r3, [sp, #16]
 8051afa:	2304      	movs	r3, #4
 8051afc:	2101      	movs	r1, #1
 8051afe:	f24f 0061 	movw	r0, #61537	; 0xf061
 8051b02:	9305      	str	r3, [sp, #20]
 8051b04:	f002 f8ca 	bl	8053c9c <psa_connect>
 8051b08:	1e04      	subs	r4, r0, #0
 8051b0a:	dd17      	ble.n	8051b3c <main+0x130>
 8051b0c:	481b      	ldr	r0, [pc, #108]	; (8051b7c <main+0x170>)
 8051b0e:	f002 f908 	bl	8053d22 <printk>
 8051b12:	2301      	movs	r3, #1
 8051b14:	9301      	str	r3, [sp, #4]
 8051b16:	ab04      	add	r3, sp, #16
 8051b18:	9300      	str	r3, [sp, #0]
 8051b1a:	2300      	movs	r3, #0
 8051b1c:	4620      	mov	r0, r4
 8051b1e:	461a      	mov	r2, r3
 8051b20:	4619      	mov	r1, r3
 8051b22:	f002 f8c9 	bl	8053cb8 <psa_call>
 8051b26:	2800      	cmp	r0, #0
 8051b28:	da17      	bge.n	8051b5a <main+0x14e>
 8051b2a:	4815      	ldr	r0, [pc, #84]	; (8051b80 <main+0x174>)
 8051b2c:	e016      	b.n	8051b5c <main+0x150>
 8051b2e:	4818      	ldr	r0, [pc, #96]	; (8051b90 <main+0x184>)
 8051b30:	f002 f8f7 	bl	8053d22 <printk>
 8051b34:	4620      	mov	r0, r4
 8051b36:	f002 f8d1 	bl	8053cdc <psa_close>
 8051b3a:	e7d6      	b.n	8051aea <main+0xde>
 8051b3c:	4813      	ldr	r0, [pc, #76]	; (8051b8c <main+0x180>)
 8051b3e:	f002 f8f0 	bl	8053d22 <printk>
 8051b42:	4670      	mov	r0, lr
 8051b44:	f003 f928 	bl	8054d98 <__exit_veneer_veneer>
 8051b48:	4912      	ldr	r1, [pc, #72]	; (8051b94 <main+0x188>)
 8051b4a:	4813      	ldr	r0, [pc, #76]	; (8051b98 <main+0x18c>)
 8051b4c:	f002 f8e9 	bl	8053d22 <printk>
 8051b50:	4670      	mov	r0, lr
 8051b52:	f003 f921 	bl	8054d98 <__exit_veneer_veneer>
 8051b56:	b008      	add	sp, #32
 8051b58:	bd10      	pop	{r4, pc}
 8051b5a:	480d      	ldr	r0, [pc, #52]	; (8051b90 <main+0x184>)
 8051b5c:	f002 f8e1 	bl	8053d22 <printk>
 8051b60:	4620      	mov	r0, r4
 8051b62:	f002 f8bb 	bl	8053cdc <psa_close>
 8051b66:	e7ec      	b.n	8051b42 <main+0x136>
 8051b68:	20000000 	.word	0x20000000
 8051b6c:	20000358 	.word	0x20000358
 8051b70:	0805539e 	.word	0x0805539e
 8051b74:	080553ff 	.word	0x080553ff
 8051b78:	08055430 	.word	0x08055430
 8051b7c:	08055464 	.word	0x08055464
 8051b80:	080554b2 	.word	0x080554b2
 8051b84:	080553cb 	.word	0x080553cb
 8051b88:	0805544a 	.word	0x0805544a
 8051b8c:	08055476 	.word	0x08055476
 8051b90:	080554a3 	.word	0x080554a3
 8051b94:	080554c0 	.word	0x080554c0
 8051b98:	080554d0 	.word	0x080554d0

08051b9c <print_digits>:
 8051b9c:	e92d 4ff0 	stmdb	sp!, {r4, r5, r6, r7, r8, r9, sl, fp, lr}
 8051ba0:	b087      	sub	sp, #28
 8051ba2:	460f      	mov	r7, r1
 8051ba4:	4619      	mov	r1, r3
 8051ba6:	9b10      	ldr	r3, [sp, #64]	; 0x40
 8051ba8:	4606      	mov	r6, r0
 8051baa:	2514      	movs	r5, #20
 8051bac:	4610      	mov	r0, r2
 8051bae:	4698      	mov	r8, r3
 8051bb0:	f89d b044 	ldrb.w	fp, [sp, #68]	; 0x44
 8051bb4:	f89d a048 	ldrb.w	sl, [sp, #72]	; 0x48
 8051bb8:	4c1e      	ldr	r4, [pc, #120]	; (8051c34 <print_digits+0x98>)
 8051bba:	ea4f 79e3 	mov.w	r9, r3, asr #31
 8051bbe:	ea50 0301 	orrs.w	r3, r0, r1
 8051bc2:	d11a      	bne.n	8051bfa <print_digits+0x5e>
 8051bc4:	2d14      	cmp	r5, #20
 8051bc6:	bf08      	it	eq
 8051bc8:	2330      	moveq	r3, #48	; 0x30
 8051bca:	9c13      	ldr	r4, [sp, #76]	; 0x4c
 8051bcc:	bf18      	it	ne
 8051bce:	3501      	addne	r5, #1
 8051bd0:	442c      	add	r4, r5
 8051bd2:	bf08      	it	eq
 8051bd4:	f88d 3014 	strbeq.w	r3, [sp, #20]
 8051bd8:	2c15      	cmp	r4, #21
 8051bda:	d01b      	beq.n	8051c14 <print_digits+0x78>
 8051bdc:	3c15      	subs	r4, #21
 8051bde:	2c00      	cmp	r4, #0
 8051be0:	dc1a      	bgt.n	8051c18 <print_digits+0x7c>
 8051be2:	f81d 0005 	ldrb.w	r0, [sp, r5]
 8051be6:	4639      	mov	r1, r7
 8051be8:	3501      	adds	r5, #1
 8051bea:	47b0      	blx	r6
 8051bec:	2d15      	cmp	r5, #21
 8051bee:	d1f8      	bne.n	8051be2 <print_digits+0x46>
 8051bf0:	2c00      	cmp	r4, #0
 8051bf2:	dc19      	bgt.n	8051c28 <print_digits+0x8c>
 8051bf4:	b007      	add	sp, #28
 8051bf6:	e8bd 8ff0 	ldmia.w	sp!, {r4, r5, r6, r7, r8, r9, sl, fp, pc}
 8051bfa:	4642      	mov	r2, r8
 8051bfc:	464b      	mov	r3, r9
 8051bfe:	f7ff fcf7 	bl	80515f0 <__aeabi_uldivmod>
 8051c02:	4684      	mov	ip, r0
 8051c04:	460b      	mov	r3, r1
 8051c06:	5ca2      	ldrb	r2, [r4, r2]
 8051c08:	4660      	mov	r0, ip
 8051c0a:	f80d 2005 	strb.w	r2, [sp, r5]
 8051c0e:	4619      	mov	r1, r3
 8051c10:	3d01      	subs	r5, #1
 8051c12:	e7d4      	b.n	8051bbe <print_digits+0x22>
 8051c14:	2400      	movs	r4, #0
 8051c16:	e7e4      	b.n	8051be2 <print_digits+0x46>
 8051c18:	f1bb 0f00 	cmp.w	fp, #0
 8051c1c:	d0e1      	beq.n	8051be2 <print_digits+0x46>
 8051c1e:	4639      	mov	r1, r7
 8051c20:	4650      	mov	r0, sl
 8051c22:	47b0      	blx	r6
 8051c24:	3c01      	subs	r4, #1
 8051c26:	e7da      	b.n	8051bde <print_digits+0x42>
 8051c28:	4639      	mov	r1, r7
 8051c2a:	4650      	mov	r0, sl
 8051c2c:	47b0      	blx	r6
 8051c2e:	3c01      	subs	r4, #1
 8051c30:	e7de      	b.n	8051bf0 <print_digits+0x54>
 8051c32:	bf00      	nop
 8051c34:	080554e0 	.word	0x080554e0

08051c38 <char_out>:
 8051c38:	680b      	ldr	r3, [r1, #0]
 8051c3a:	3301      	adds	r3, #1
 8051c3c:	600b      	str	r3, [r1, #0]
 8051c3e:	4b01      	ldr	r3, [pc, #4]	; (8051c44 <char_out+0xc>)
 8051c40:	681b      	ldr	r3, [r3, #0]
 8051c42:	4718      	bx	r3
 8051c44:	20000004 	.word	0x20000004

08051c48 <__printk_hook_install>:
 8051c48:	4b01      	ldr	r3, [pc, #4]	; (8051c50 <__printk_hook_install+0x8>)
 8051c4a:	6018      	str	r0, [r3, #0]
 8051c4c:	4770      	bx	lr
 8051c4e:	bf00      	nop
 8051c50:	20000004 	.word	0x20000004

08051c54 <z_vprintk>:
 8051c54:	e92d 4ff0 	stmdb	sp!, {r4, r5, r6, r7, r8, r9, sl, fp, lr}
 8051c58:	2600      	movs	r6, #0
 8051c5a:	4605      	mov	r5, r0
 8051c5c:	468b      	mov	fp, r1
 8051c5e:	461c      	mov	r4, r3
 8051c60:	f04f 38ff 	mov.w	r8, #4294967295	; 0xffffffff
 8051c64:	4637      	mov	r7, r6
 8051c66:	b087      	sub	sp, #28
 8051c68:	f102 3aff 	add.w	sl, r2, #4294967295	; 0xffffffff
 8051c6c:	f04f 0900 	mov.w	r9, #0
 8051c70:	e007      	b.n	8051c82 <z_vprintk+0x2e>
 8051c72:	f1b9 0f00 	cmp.w	r9, #0
 8051c76:	d10b      	bne.n	8051c90 <z_vprintk+0x3c>
 8051c78:	2825      	cmp	r0, #37	; 0x25
 8051c7a:	f000 810a 	beq.w	8051e92 <z_vprintk+0x23e>
 8051c7e:	4659      	mov	r1, fp
 8051c80:	47a8      	blx	r5
 8051c82:	f81a 0f01 	ldrb.w	r0, [sl, #1]!
 8051c86:	2800      	cmp	r0, #0
 8051c88:	d1f3      	bne.n	8051c72 <z_vprintk+0x1e>
 8051c8a:	b007      	add	sp, #28
 8051c8c:	e8bd 8ff0 	ldmia.w	sp!, {r4, r5, r6, r7, r8, r9, sl, fp, pc}
 8051c90:	287a      	cmp	r0, #122	; 0x7a
 8051c92:	d80a      	bhi.n	8051caa <z_vprintk+0x56>
 8051c94:	2862      	cmp	r0, #98	; 0x62
 8051c96:	d810      	bhi.n	8051cba <z_vprintk+0x66>
 8051c98:	2830      	cmp	r0, #48	; 0x30
 8051c9a:	d051      	beq.n	8051d40 <z_vprintk+0xec>
 8051c9c:	d844      	bhi.n	8051d28 <z_vprintk+0xd4>
 8051c9e:	2825      	cmp	r0, #37	; 0x25
 8051ca0:	f000 80f5 	beq.w	8051e8e <z_vprintk+0x23a>
 8051ca4:	282d      	cmp	r0, #45	; 0x2d
 8051ca6:	f000 80fb 	beq.w	8051ea0 <z_vprintk+0x24c>
 8051caa:	4659      	mov	r1, fp
 8051cac:	2025      	movs	r0, #37	; 0x25
 8051cae:	47a8      	blx	r5
 8051cb0:	4659      	mov	r1, fp
 8051cb2:	f89a 0000 	ldrb.w	r0, [sl]
 8051cb6:	47a8      	blx	r5
 8051cb8:	e7d8      	b.n	8051c6c <z_vprintk+0x18>
 8051cba:	f1a0 0363 	sub.w	r3, r0, #99	; 0x63
 8051cbe:	2b17      	cmp	r3, #23
 8051cc0:	d8f3      	bhi.n	8051caa <z_vprintk+0x56>
 8051cc2:	a201      	add	r2, pc, #4	; (adr r2, 8051cc8 <z_vprintk+0x74>)
 8051cc4:	f852 f023 	ldr.w	pc, [r2, r3, lsl #2]
 8051cc8:	08051e87 	.word	0x08051e87
 8051ccc:	08051d89 	.word	0x08051d89
 8051cd0:	08051cab 	.word	0x08051cab
 8051cd4:	08051cab 	.word	0x08051cab
 8051cd8:	08051cab 	.word	0x08051cab
 8051cdc:	08051d6b 	.word	0x08051d6b
 8051ce0:	08051d89 	.word	0x08051d89
 8051ce4:	08051cab 	.word	0x08051cab
 8051ce8:	08051cab 	.word	0x08051cab
 8051cec:	08051d6b 	.word	0x08051d6b
 8051cf0:	08051cab 	.word	0x08051cab
 8051cf4:	08051cab 	.word	0x08051cab
 8051cf8:	08051cab 	.word	0x08051cab
 8051cfc:	08051e03 	.word	0x08051e03
 8051d00:	08051cab 	.word	0x08051cab
 8051d04:	08051cab 	.word	0x08051cab
 8051d08:	08051e4f 	.word	0x08051e4f
 8051d0c:	08051cab 	.word	0x08051cab
 8051d10:	08051d89 	.word	0x08051d89
 8051d14:	08051cab 	.word	0x08051cab
 8051d18:	08051cab 	.word	0x08051cab
 8051d1c:	08051d31 	.word	0x08051d31
 8051d20:	08051cab 	.word	0x08051cab
 8051d24:	08051d6b 	.word	0x08051d6b
 8051d28:	2839      	cmp	r0, #57	; 0x39
 8051d2a:	d915      	bls.n	8051d58 <z_vprintk+0x104>
 8051d2c:	2858      	cmp	r0, #88	; 0x58
 8051d2e:	d1bc      	bne.n	8051caa <z_vprintk+0x56>
 8051d30:	f89a 3000 	ldrb.w	r3, [sl]
 8051d34:	2b70      	cmp	r3, #112	; 0x70
 8051d36:	d16e      	bne.n	8051e16 <z_vprintk+0x1c2>
 8051d38:	2300      	movs	r3, #0
 8051d3a:	f854 2b04 	ldr.w	r2, [r4], #4
 8051d3e:	e075      	b.n	8051e2c <z_vprintk+0x1d8>
 8051d40:	f1b8 0f00 	cmp.w	r8, #0
 8051d44:	da0b      	bge.n	8051d5e <z_vprintk+0x10a>
 8051d46:	2f00      	cmp	r7, #0
 8051d48:	f000 80ac 	beq.w	8051ea4 <z_vprintk+0x250>
 8051d4c:	f1a0 0830 	sub.w	r8, r0, #48	; 0x30
 8051d50:	2f00      	cmp	r7, #0
 8051d52:	bf08      	it	eq
 8051d54:	2702      	moveq	r7, #2
 8051d56:	e794      	b.n	8051c82 <z_vprintk+0x2e>
 8051d58:	f1b8 0f00 	cmp.w	r8, #0
 8051d5c:	dbf6      	blt.n	8051d4c <z_vprintk+0xf8>
 8051d5e:	230a      	movs	r3, #10
 8051d60:	fb03 0808 	mla	r8, r3, r8, r0
 8051d64:	f1a8 0830 	sub.w	r8, r8, #48	; 0x30
 8051d68:	e7f2      	b.n	8051d50 <z_vprintk+0xfc>
 8051d6a:	2868      	cmp	r0, #104	; 0x68
 8051d6c:	d103      	bne.n	8051d76 <z_vprintk+0x122>
 8051d6e:	2e68      	cmp	r6, #104	; 0x68
 8051d70:	d106      	bne.n	8051d80 <z_vprintk+0x12c>
 8051d72:	2648      	movs	r6, #72	; 0x48
 8051d74:	e785      	b.n	8051c82 <z_vprintk+0x2e>
 8051d76:	286c      	cmp	r0, #108	; 0x6c
 8051d78:	d102      	bne.n	8051d80 <z_vprintk+0x12c>
 8051d7a:	2e6c      	cmp	r6, #108	; 0x6c
 8051d7c:	f000 8094 	beq.w	8051ea8 <z_vprintk+0x254>
 8051d80:	2e00      	cmp	r6, #0
 8051d82:	d192      	bne.n	8051caa <z_vprintk+0x56>
 8051d84:	4606      	mov	r6, r0
 8051d86:	e77c      	b.n	8051c82 <z_vprintk+0x2e>
 8051d88:	2e7a      	cmp	r6, #122	; 0x7a
 8051d8a:	d106      	bne.n	8051d9a <z_vprintk+0x146>
 8051d8c:	46a1      	mov	r9, r4
 8051d8e:	f859 2b04 	ldr.w	r2, [r9], #4
 8051d92:	17d3      	asrs	r3, r2, #31
 8051d94:	2875      	cmp	r0, #117	; 0x75
 8051d96:	d123      	bne.n	8051de0 <z_vprintk+0x18c>
 8051d98:	e00f      	b.n	8051dba <z_vprintk+0x166>
 8051d9a:	2e6c      	cmp	r6, #108	; 0x6c
 8051d9c:	d0f6      	beq.n	8051d8c <z_vprintk+0x138>
 8051d9e:	2e4c      	cmp	r6, #76	; 0x4c
 8051da0:	d105      	bne.n	8051dae <z_vprintk+0x15a>
 8051da2:	3407      	adds	r4, #7
 8051da4:	f024 0907 	bic.w	r9, r4, #7
 8051da8:	e8f9 2302 	ldrd	r2, r3, [r9], #8
 8051dac:	e7f2      	b.n	8051d94 <z_vprintk+0x140>
 8051dae:	2875      	cmp	r0, #117	; 0x75
 8051db0:	6822      	ldr	r2, [r4, #0]
 8051db2:	f104 0904 	add.w	r9, r4, #4
 8051db6:	d112      	bne.n	8051dde <z_vprintk+0x18a>
 8051db8:	2300      	movs	r3, #0
 8051dba:	1ef8      	subs	r0, r7, #3
 8051dbc:	bf18      	it	ne
 8051dbe:	2001      	movne	r0, #1
 8051dc0:	2f01      	cmp	r7, #1
 8051dc2:	bf0c      	ite	eq
 8051dc4:	2430      	moveq	r4, #48	; 0x30
 8051dc6:	2420      	movne	r4, #32
 8051dc8:	9001      	str	r0, [sp, #4]
 8051dca:	200a      	movs	r0, #10
 8051dcc:	e9cd 4802 	strd	r4, r8, [sp, #8]
 8051dd0:	9000      	str	r0, [sp, #0]
 8051dd2:	4659      	mov	r1, fp
 8051dd4:	4628      	mov	r0, r5
 8051dd6:	f7ff fee1 	bl	8051b9c <print_digits>
 8051dda:	464c      	mov	r4, r9
 8051ddc:	e746      	b.n	8051c6c <z_vprintk+0x18>
 8051dde:	17d3      	asrs	r3, r2, #31
 8051de0:	2a00      	cmp	r2, #0
 8051de2:	f173 0100 	sbcs.w	r1, r3, #0
 8051de6:	dae8      	bge.n	8051dba <z_vprintk+0x166>
 8051de8:	4659      	mov	r1, fp
 8051dea:	202d      	movs	r0, #45	; 0x2d
 8051dec:	e9cd 2304 	strd	r2, r3, [sp, #16]
 8051df0:	47a8      	blx	r5
 8051df2:	e9dd 2304 	ldrd	r2, r3, [sp, #16]
 8051df6:	4252      	negs	r2, r2
 8051df8:	eb63 0343 	sbc.w	r3, r3, r3, lsl #1
 8051dfc:	f108 38ff 	add.w	r8, r8, #4294967295	; 0xffffffff
 8051e00:	e7db      	b.n	8051dba <z_vprintk+0x166>
 8051e02:	4659      	mov	r1, fp
 8051e04:	2030      	movs	r0, #48	; 0x30
 8051e06:	47a8      	blx	r5
 8051e08:	4659      	mov	r1, fp
 8051e0a:	2078      	movs	r0, #120	; 0x78
 8051e0c:	47a8      	blx	r5
 8051e0e:	f04f 0808 	mov.w	r8, #8
 8051e12:	2701      	movs	r7, #1
 8051e14:	e78c      	b.n	8051d30 <z_vprintk+0xdc>
 8051e16:	2e6c      	cmp	r6, #108	; 0x6c
 8051e18:	d08e      	beq.n	8051d38 <z_vprintk+0xe4>
 8051e1a:	2e4c      	cmp	r6, #76	; 0x4c
 8051e1c:	d18c      	bne.n	8051d38 <z_vprintk+0xe4>
 8051e1e:	1de3      	adds	r3, r4, #7
 8051e20:	f023 0307 	bic.w	r3, r3, #7
 8051e24:	461c      	mov	r4, r3
 8051e26:	685b      	ldr	r3, [r3, #4]
 8051e28:	f854 2b08 	ldr.w	r2, [r4], #8
 8051e2c:	1ef8      	subs	r0, r7, #3
 8051e2e:	bf18      	it	ne
 8051e30:	2001      	movne	r0, #1
 8051e32:	2f01      	cmp	r7, #1
 8051e34:	bf0c      	ite	eq
 8051e36:	2130      	moveq	r1, #48	; 0x30
 8051e38:	2120      	movne	r1, #32
 8051e3a:	e9cd 1802 	strd	r1, r8, [sp, #8]
 8051e3e:	2110      	movs	r1, #16
 8051e40:	9001      	str	r0, [sp, #4]
 8051e42:	9100      	str	r1, [sp, #0]
 8051e44:	4628      	mov	r0, r5
 8051e46:	4659      	mov	r1, fp
 8051e48:	f7ff fea8 	bl	8051b9c <print_digits>
 8051e4c:	e70e      	b.n	8051c6c <z_vprintk+0x18>
 8051e4e:	f854 3b04 	ldr.w	r3, [r4], #4
 8051e52:	4699      	mov	r9, r3
 8051e54:	464a      	mov	r2, r9
 8051e56:	f819 0b01 	ldrb.w	r0, [r9], #1
 8051e5a:	b978      	cbnz	r0, 8051e7c <z_vprintk+0x228>
 8051e5c:	2f03      	cmp	r7, #3
 8051e5e:	d125      	bne.n	8051eac <z_vprintk+0x258>
 8051e60:	eba2 0903 	sub.w	r9, r2, r3
 8051e64:	eba8 0909 	sub.w	r9, r8, r9
 8051e68:	f1b9 0f00 	cmp.w	r9, #0
 8051e6c:	f77f aefe 	ble.w	8051c6c <z_vprintk+0x18>
 8051e70:	4659      	mov	r1, fp
 8051e72:	2020      	movs	r0, #32
 8051e74:	47a8      	blx	r5
 8051e76:	f109 39ff 	add.w	r9, r9, #4294967295	; 0xffffffff
 8051e7a:	e7f5      	b.n	8051e68 <z_vprintk+0x214>
 8051e7c:	4659      	mov	r1, fp
 8051e7e:	9304      	str	r3, [sp, #16]
 8051e80:	47a8      	blx	r5
 8051e82:	9b04      	ldr	r3, [sp, #16]
 8051e84:	e7e6      	b.n	8051e54 <z_vprintk+0x200>
 8051e86:	4659      	mov	r1, fp
 8051e88:	f854 0b04 	ldr.w	r0, [r4], #4
 8051e8c:	e713      	b.n	8051cb6 <z_vprintk+0x62>
 8051e8e:	4659      	mov	r1, fp
 8051e90:	e711      	b.n	8051cb6 <z_vprintk+0x62>
 8051e92:	464e      	mov	r6, r9
 8051e94:	464f      	mov	r7, r9
 8051e96:	f04f 38ff 	mov.w	r8, #4294967295	; 0xffffffff
 8051e9a:	f04f 0901 	mov.w	r9, #1
 8051e9e:	e6f0      	b.n	8051c82 <z_vprintk+0x2e>
 8051ea0:	2703      	movs	r7, #3
 8051ea2:	e6ee      	b.n	8051c82 <z_vprintk+0x2e>
 8051ea4:	2701      	movs	r7, #1
 8051ea6:	e6ec      	b.n	8051c82 <z_vprintk+0x2e>
 8051ea8:	264c      	movs	r6, #76	; 0x4c
 8051eaa:	e6ea      	b.n	8051c82 <z_vprintk+0x2e>
 8051eac:	4681      	mov	r9, r0
 8051eae:	e6e8      	b.n	8051c82 <z_vprintk+0x2e>

08051eb0 <vprintk>:
 8051eb0:	b507      	push	{r0, r1, r2, lr}
 8051eb2:	460b      	mov	r3, r1
 8051eb4:	2100      	movs	r1, #0
 8051eb6:	4602      	mov	r2, r0
 8051eb8:	9101      	str	r1, [sp, #4]
 8051eba:	4803      	ldr	r0, [pc, #12]	; (8051ec8 <vprintk+0x18>)
 8051ebc:	a901      	add	r1, sp, #4
 8051ebe:	f7ff fec9 	bl	8051c54 <z_vprintk>
 8051ec2:	b003      	add	sp, #12
 8051ec4:	f85d fb04 	ldr.w	pc, [sp], #4
 8051ec8:	08051c39 	.word	0x08051c39

08051ecc <vsnprintk>:
 8051ecc:	b530      	push	{r4, r5, lr}
 8051ece:	2500      	movs	r5, #0
 8051ed0:	b085      	sub	sp, #20
 8051ed2:	e9cd 0101 	strd	r0, r1, [sp, #4]
 8051ed6:	4604      	mov	r4, r0
 8051ed8:	a901      	add	r1, sp, #4
 8051eda:	4805      	ldr	r0, [pc, #20]	; (8051ef0 <vsnprintk+0x24>)
 8051edc:	9503      	str	r5, [sp, #12]
 8051ede:	f7ff feb9 	bl	8051c54 <z_vprintk>
 8051ee2:	e9dd 3002 	ldrd	r3, r0, [sp, #8]
 8051ee6:	4298      	cmp	r0, r3
 8051ee8:	bfb8      	it	lt
 8051eea:	5425      	strblt	r5, [r4, r0]
 8051eec:	b005      	add	sp, #20
 8051eee:	bd30      	pop	{r4, r5, pc}
 8051ef0:	08053cfd 	.word	0x08053cfd

08051ef4 <stm32l5_init>:
 8051ef4:	b513      	push	{r0, r1, r4, lr}
 8051ef6:	f04f 0320 	mov.w	r3, #32
 8051efa:	f3ef 8411 	mrs	r4, BASEPRI
 8051efe:	f383 8811 	msr	BASEPRI, r3
 8051f02:	f3bf 8f6f 	isb	sy
 8051f06:	f000 fbbb 	bl	8052680 <z_arm_nmi_init>
 8051f0a:	f384 8811 	msr	BASEPRI, r4
 8051f0e:	f3bf 8f6f 	isb	sy
 8051f12:	2000      	movs	r0, #0
 8051f14:	4b0b      	ldr	r3, [pc, #44]	; (8051f44 <stm32l5_init+0x50>)
 8051f16:	4a0c      	ldr	r2, [pc, #48]	; (8051f48 <stm32l5_init+0x54>)
 8051f18:	490c      	ldr	r1, [pc, #48]	; (8051f4c <stm32l5_init+0x58>)
 8051f1a:	601a      	str	r2, [r3, #0]
 8051f1c:	4b0c      	ldr	r3, [pc, #48]	; (8051f50 <stm32l5_init+0x5c>)
 8051f1e:	6d9a      	ldr	r2, [r3, #88]	; 0x58
 8051f20:	f042 5280 	orr.w	r2, r2, #268435456	; 0x10000000
 8051f24:	659a      	str	r2, [r3, #88]	; 0x58
 8051f26:	6d9a      	ldr	r2, [r3, #88]	; 0x58
 8051f28:	f002 5280 	and.w	r2, r2, #268435456	; 0x10000000
 8051f2c:	9201      	str	r2, [sp, #4]
 8051f2e:	9a01      	ldr	r2, [sp, #4]
 8051f30:	680a      	ldr	r2, [r1, #0]
 8051f32:	f422 62c0 	bic.w	r2, r2, #1536	; 0x600
 8051f36:	600a      	str	r2, [r1, #0]
 8051f38:	6d9a      	ldr	r2, [r3, #88]	; 0x58
 8051f3a:	f022 5280 	bic.w	r2, r2, #268435456	; 0x10000000
 8051f3e:	659a      	str	r2, [r3, #88]	; 0x58
 8051f40:	b002      	add	sp, #8
 8051f42:	bd10      	pop	{r4, pc}
 8051f44:	2000002c 	.word	0x2000002c
 8051f48:	003d0900 	.word	0x003d0900
 8051f4c:	40007000 	.word	0x40007000
 8051f50:	40021000 	.word	0x40021000

08051f54 <sys_reboot>:
 8051f54:	4604      	mov	r4, r0
 8051f56:	b508      	push	{r3, lr}
 8051f58:	f04f 0220 	mov.w	r2, #32
 8051f5c:	f3ef 8311 	mrs	r3, BASEPRI
 8051f60:	f382 8811 	msr	BASEPRI, r2
 8051f64:	f3bf 8f6f 	isb	sy
 8051f68:	f000 fabc 	bl	80524e4 <sys_clock_disable>
 8051f6c:	4620      	mov	r0, r4
 8051f6e:	f000 fcd5 	bl	805291c <sys_arch_reboot>
 8051f72:	4803      	ldr	r0, [pc, #12]	; (8051f80 <sys_reboot+0x2c>)
 8051f74:	f001 fed5 	bl	8053d22 <printk>
 8051f78:	f000 fb68 	bl	805264c <arch_cpu_idle>
 8051f7c:	e7fc      	b.n	8051f78 <sys_reboot+0x24>
 8051f7e:	bf00      	nop
 8051f80:	080554f1 	.word	0x080554f1

08051f84 <uart_console_init>:
 8051f84:	b510      	push	{r4, lr}
 8051f86:	4807      	ldr	r0, [pc, #28]	; (8051fa4 <uart_console_init+0x20>)
 8051f88:	f001 f84e 	bl	8053028 <z_impl_device_get_binding>
 8051f8c:	4c06      	ldr	r4, [pc, #24]	; (8051fa8 <uart_console_init+0x24>)
 8051f8e:	4b07      	ldr	r3, [pc, #28]	; (8051fac <uart_console_init+0x28>)
 8051f90:	6018      	str	r0, [r3, #0]
 8051f92:	4620      	mov	r0, r4
 8051f94:	f000 fd0c 	bl	80529b0 <__stdout_hook_install>
 8051f98:	4620      	mov	r0, r4
 8051f9a:	f7ff fe55 	bl	8051c48 <__printk_hook_install>
 8051f9e:	2000      	movs	r0, #0
 8051fa0:	bd10      	pop	{r4, pc}
 8051fa2:	bf00      	nop
 8051fa4:	0805551a 	.word	0x0805551a
 8051fa8:	08051fb1 	.word	0x08051fb1
 8051fac:	200004e8 	.word	0x200004e8

08051fb0 <console_out>:
 8051fb0:	280a      	cmp	r0, #10
 8051fb2:	b538      	push	{r3, r4, r5, lr}
 8051fb4:	4604      	mov	r4, r0
 8051fb6:	4d07      	ldr	r5, [pc, #28]	; (8051fd4 <console_out+0x24>)
 8051fb8:	d104      	bne.n	8051fc4 <console_out+0x14>
 8051fba:	6828      	ldr	r0, [r5, #0]
 8051fbc:	6883      	ldr	r3, [r0, #8]
 8051fbe:	210d      	movs	r1, #13
 8051fc0:	685b      	ldr	r3, [r3, #4]
 8051fc2:	4798      	blx	r3
 8051fc4:	6828      	ldr	r0, [r5, #0]
 8051fc6:	6883      	ldr	r3, [r0, #8]
 8051fc8:	b2e1      	uxtb	r1, r4
 8051fca:	685b      	ldr	r3, [r3, #4]
 8051fcc:	4798      	blx	r3
 8051fce:	4620      	mov	r0, r4
 8051fd0:	bd38      	pop	{r3, r4, r5, pc}
 8051fd2:	bf00      	nop
 8051fd4:	200004e8 	.word	0x200004e8

08051fd8 <__stm32_exti_isr.isra.0>:
 8051fd8:	e92d 41f0 	stmdb	sp!, {r4, r5, r6, r7, r8, lr}
 8051fdc:	4604      	mov	r4, r0
 8051fde:	460f      	mov	r7, r1
 8051fe0:	4615      	mov	r5, r2
 8051fe2:	f04f 0801 	mov.w	r8, #1
 8051fe6:	4e0d      	ldr	r6, [pc, #52]	; (805201c <__stm32_exti_isr.isra.0+0x44>)
 8051fe8:	42bc      	cmp	r4, r7
 8051fea:	db01      	blt.n	8051ff0 <__stm32_exti_isr.isra.0+0x18>
 8051fec:	e8bd 81f0 	ldmia.w	sp!, {r4, r5, r6, r7, r8, pc}
 8051ff0:	68f2      	ldr	r2, [r6, #12]
 8051ff2:	fa08 f304 	lsl.w	r3, r8, r4
 8051ff6:	ea33 0202 	bics.w	r2, r3, r2
 8051ffa:	d003      	beq.n	8052004 <__stm32_exti_isr.isra.0+0x2c>
 8051ffc:	6932      	ldr	r2, [r6, #16]
 8051ffe:	ea33 0202 	bics.w	r2, r3, r2
 8052002:	d109      	bne.n	8052018 <__stm32_exti_isr.isra.0+0x40>
 8052004:	60f3      	str	r3, [r6, #12]
 8052006:	6133      	str	r3, [r6, #16]
 8052008:	f855 3034 	ldr.w	r3, [r5, r4, lsl #3]
 805200c:	b123      	cbz	r3, 8052018 <__stm32_exti_isr.isra.0+0x40>
 805200e:	1d2a      	adds	r2, r5, #4
 8052010:	4620      	mov	r0, r4
 8052012:	f852 1034 	ldr.w	r1, [r2, r4, lsl #3]
 8052016:	4798      	blx	r3
 8052018:	3401      	adds	r4, #1
 805201a:	e7e5      	b.n	8051fe8 <__stm32_exti_isr.isra.0+0x10>
 805201c:	4002f400 	.word	0x4002f400

08052020 <stm32_exti_enable>:
 8052020:	2301      	movs	r3, #1
 8052022:	4a05      	ldr	r2, [pc, #20]	; (8052038 <stm32_exti_enable+0x18>)
 8052024:	4083      	lsls	r3, r0
 8052026:	f8d2 1080 	ldr.w	r1, [r2, #128]	; 0x80
 805202a:	430b      	orrs	r3, r1
 805202c:	f8c2 3080 	str.w	r3, [r2, #128]	; 0x80
 8052030:	4b02      	ldr	r3, [pc, #8]	; (805203c <stm32_exti_enable+0x1c>)
 8052032:	5618      	ldrsb	r0, [r3, r0]
 8052034:	f000 bab0 	b.w	8052598 <arch_irq_enable>
 8052038:	4002f400 	.word	0x4002f400
 805203c:	0805552e 	.word	0x0805552e

08052040 <stm32_exti_disable>:
 8052040:	281f      	cmp	r0, #31
 8052042:	dc09      	bgt.n	8052058 <stm32_exti_disable+0x18>
 8052044:	2201      	movs	r2, #1
 8052046:	4905      	ldr	r1, [pc, #20]	; (805205c <stm32_exti_disable+0x1c>)
 8052048:	fa02 f000 	lsl.w	r0, r2, r0
 805204c:	f8d1 3080 	ldr.w	r3, [r1, #128]	; 0x80
 8052050:	ea23 0000 	bic.w	r0, r3, r0
 8052054:	f8c1 0080 	str.w	r0, [r1, #128]	; 0x80
 8052058:	4770      	bx	lr
 805205a:	bf00      	nop
 805205c:	4002f400 	.word	0x4002f400

08052060 <stm32_exti_trigger>:
 8052060:	2903      	cmp	r1, #3
 8052062:	d80f      	bhi.n	8052084 <stm32_exti_trigger+0x24>
 8052064:	e8df f001 	tbb	[pc, r1]
 8052068:	23170f02 	.word	0x23170f02
 805206c:	2201      	movs	r2, #1
 805206e:	4b15      	ldr	r3, [pc, #84]	; (80520c4 <stm32_exti_trigger+0x64>)
 8052070:	fa02 f000 	lsl.w	r0, r2, r0
 8052074:	6819      	ldr	r1, [r3, #0]
 8052076:	ea21 0100 	bic.w	r1, r1, r0
 805207a:	6019      	str	r1, [r3, #0]
 805207c:	685a      	ldr	r2, [r3, #4]
 805207e:	ea22 0000 	bic.w	r0, r2, r0
 8052082:	6058      	str	r0, [r3, #4]
 8052084:	4770      	bx	lr
 8052086:	2301      	movs	r3, #1
 8052088:	fa03 f000 	lsl.w	r0, r3, r0
 805208c:	4b0d      	ldr	r3, [pc, #52]	; (80520c4 <stm32_exti_trigger+0x64>)
 805208e:	681a      	ldr	r2, [r3, #0]
 8052090:	4302      	orrs	r2, r0
 8052092:	601a      	str	r2, [r3, #0]
 8052094:	e7f2      	b.n	805207c <stm32_exti_trigger+0x1c>
 8052096:	2301      	movs	r3, #1
 8052098:	fa03 f000 	lsl.w	r0, r3, r0
 805209c:	4b09      	ldr	r3, [pc, #36]	; (80520c4 <stm32_exti_trigger+0x64>)
 805209e:	685a      	ldr	r2, [r3, #4]
 80520a0:	4302      	orrs	r2, r0
 80520a2:	605a      	str	r2, [r3, #4]
 80520a4:	681a      	ldr	r2, [r3, #0]
 80520a6:	ea22 0000 	bic.w	r0, r2, r0
 80520aa:	6018      	str	r0, [r3, #0]
 80520ac:	4770      	bx	lr
 80520ae:	2301      	movs	r3, #1
 80520b0:	fa03 f000 	lsl.w	r0, r3, r0
 80520b4:	4b03      	ldr	r3, [pc, #12]	; (80520c4 <stm32_exti_trigger+0x64>)
 80520b6:	681a      	ldr	r2, [r3, #0]
 80520b8:	4302      	orrs	r2, r0
 80520ba:	601a      	str	r2, [r3, #0]
 80520bc:	685a      	ldr	r2, [r3, #4]
 80520be:	4310      	orrs	r0, r2
 80520c0:	e7df      	b.n	8052082 <stm32_exti_trigger+0x22>
 80520c2:	bf00      	nop
 80520c4:	4002f400 	.word	0x4002f400

080520c8 <stm32_exti_set_callback>:
 80520c8:	4b07      	ldr	r3, [pc, #28]	; (80520e8 <stm32_exti_set_callback+0x20>)
 80520ca:	b510      	push	{r4, lr}
 80520cc:	4604      	mov	r4, r0
 80520ce:	f853 0030 	ldr.w	r0, [r3, r0, lsl #3]
 80520d2:	b928      	cbnz	r0, 80520e0 <stm32_exti_set_callback+0x18>
 80520d4:	f843 1034 	str.w	r1, [r3, r4, lsl #3]
 80520d8:	eb03 03c4 	add.w	r3, r3, r4, lsl #3
 80520dc:	605a      	str	r2, [r3, #4]
 80520de:	bd10      	pop	{r4, pc}
 80520e0:	f06f 000f 	mvn.w	r0, #15
 80520e4:	e7fb      	b.n	80520de <stm32_exti_set_callback+0x16>
 80520e6:	bf00      	nop
 80520e8:	200004ec 	.word	0x200004ec

080520ec <stm32_exti_unset_callback>:
 80520ec:	2200      	movs	r2, #0
 80520ee:	4b03      	ldr	r3, [pc, #12]	; (80520fc <stm32_exti_unset_callback+0x10>)
 80520f0:	f843 2030 	str.w	r2, [r3, r0, lsl #3]
 80520f4:	eb03 03c0 	add.w	r3, r3, r0, lsl #3
 80520f8:	605a      	str	r2, [r3, #4]
 80520fa:	4770      	bx	lr
 80520fc:	200004ec 	.word	0x200004ec

08052100 <stm32_clock_control_on>:
 8052100:	680b      	ldr	r3, [r1, #0]
 8052102:	b086      	sub	sp, #24
 8052104:	2b04      	cmp	r3, #4
 8052106:	d838      	bhi.n	805217a <stm32_clock_control_on+0x7a>
 8052108:	e8df f003 	tbb	[pc, r3]
 805210c:	2d190f03 	.word	0x2d190f03
 8052110:	23          	.byte	0x23
 8052111:	00          	.byte	0x00
 8052112:	4a1b      	ldr	r2, [pc, #108]	; (8052180 <stm32_clock_control_on+0x80>)
 8052114:	684b      	ldr	r3, [r1, #4]
 8052116:	6c91      	ldr	r1, [r2, #72]	; 0x48
 8052118:	4319      	orrs	r1, r3
 805211a:	6491      	str	r1, [r2, #72]	; 0x48
 805211c:	6c92      	ldr	r2, [r2, #72]	; 0x48
 805211e:	4013      	ands	r3, r2
 8052120:	9301      	str	r3, [sp, #4]
 8052122:	9b01      	ldr	r3, [sp, #4]
 8052124:	2000      	movs	r0, #0
 8052126:	b006      	add	sp, #24
 8052128:	4770      	bx	lr
 805212a:	4a15      	ldr	r2, [pc, #84]	; (8052180 <stm32_clock_control_on+0x80>)
 805212c:	684b      	ldr	r3, [r1, #4]
 805212e:	6cd1      	ldr	r1, [r2, #76]	; 0x4c
 8052130:	4319      	orrs	r1, r3
 8052132:	64d1      	str	r1, [r2, #76]	; 0x4c
 8052134:	6cd2      	ldr	r2, [r2, #76]	; 0x4c
 8052136:	4013      	ands	r3, r2
 8052138:	9302      	str	r3, [sp, #8]
 805213a:	9b02      	ldr	r3, [sp, #8]
 805213c:	e7f2      	b.n	8052124 <stm32_clock_control_on+0x24>
 805213e:	4a10      	ldr	r2, [pc, #64]	; (8052180 <stm32_clock_control_on+0x80>)
 8052140:	684b      	ldr	r3, [r1, #4]
 8052142:	6d91      	ldr	r1, [r2, #88]	; 0x58
 8052144:	4319      	orrs	r1, r3
 8052146:	6591      	str	r1, [r2, #88]	; 0x58
 8052148:	6d92      	ldr	r2, [r2, #88]	; 0x58
 805214a:	4013      	ands	r3, r2
 805214c:	9303      	str	r3, [sp, #12]
 805214e:	9b03      	ldr	r3, [sp, #12]
 8052150:	e7e8      	b.n	8052124 <stm32_clock_control_on+0x24>
 8052152:	4a0b      	ldr	r2, [pc, #44]	; (8052180 <stm32_clock_control_on+0x80>)
 8052154:	684b      	ldr	r3, [r1, #4]
 8052156:	6dd1      	ldr	r1, [r2, #92]	; 0x5c
 8052158:	4319      	orrs	r1, r3
 805215a:	65d1      	str	r1, [r2, #92]	; 0x5c
 805215c:	6dd2      	ldr	r2, [r2, #92]	; 0x5c
 805215e:	4013      	ands	r3, r2
 8052160:	9304      	str	r3, [sp, #16]
 8052162:	9b04      	ldr	r3, [sp, #16]
 8052164:	e7de      	b.n	8052124 <stm32_clock_control_on+0x24>
 8052166:	4a06      	ldr	r2, [pc, #24]	; (8052180 <stm32_clock_control_on+0x80>)
 8052168:	684b      	ldr	r3, [r1, #4]
 805216a:	6e11      	ldr	r1, [r2, #96]	; 0x60
 805216c:	4319      	orrs	r1, r3
 805216e:	6611      	str	r1, [r2, #96]	; 0x60
 8052170:	6e12      	ldr	r2, [r2, #96]	; 0x60
 8052172:	4013      	ands	r3, r2
 8052174:	9305      	str	r3, [sp, #20]
 8052176:	9b05      	ldr	r3, [sp, #20]
 8052178:	e7d4      	b.n	8052124 <stm32_clock_control_on+0x24>
 805217a:	f06f 0022 	mvn.w	r0, #34	; 0x22
 805217e:	e7d2      	b.n	8052126 <stm32_clock_control_on+0x26>
 8052180:	40021000 	.word	0x40021000

08052184 <stm32_clock_control_off>:
 8052184:	680b      	ldr	r3, [r1, #0]
 8052186:	2b04      	cmp	r3, #4
 8052188:	d828      	bhi.n	80521dc <stm32_clock_control_off+0x58>
 805218a:	e8df f003 	tbb	[pc, r3]
 805218e:	0b03      	.short	0x0b03
 8052190:	2012      	.short	0x2012
 8052192:	19          	.byte	0x19
 8052193:	00          	.byte	0x00
 8052194:	4a13      	ldr	r2, [pc, #76]	; (80521e4 <stm32_clock_control_off+0x60>)
 8052196:	6849      	ldr	r1, [r1, #4]
 8052198:	6c93      	ldr	r3, [r2, #72]	; 0x48
 805219a:	ea23 0301 	bic.w	r3, r3, r1
 805219e:	6493      	str	r3, [r2, #72]	; 0x48
 80521a0:	2000      	movs	r0, #0
 80521a2:	4770      	bx	lr
 80521a4:	4a0f      	ldr	r2, [pc, #60]	; (80521e4 <stm32_clock_control_off+0x60>)
 80521a6:	6849      	ldr	r1, [r1, #4]
 80521a8:	6cd3      	ldr	r3, [r2, #76]	; 0x4c
 80521aa:	ea23 0301 	bic.w	r3, r3, r1
 80521ae:	64d3      	str	r3, [r2, #76]	; 0x4c
 80521b0:	e7f6      	b.n	80521a0 <stm32_clock_control_off+0x1c>
 80521b2:	4a0c      	ldr	r2, [pc, #48]	; (80521e4 <stm32_clock_control_off+0x60>)
 80521b4:	6849      	ldr	r1, [r1, #4]
 80521b6:	6d93      	ldr	r3, [r2, #88]	; 0x58
 80521b8:	ea23 0301 	bic.w	r3, r3, r1
 80521bc:	6593      	str	r3, [r2, #88]	; 0x58
 80521be:	e7ef      	b.n	80521a0 <stm32_clock_control_off+0x1c>
 80521c0:	4a08      	ldr	r2, [pc, #32]	; (80521e4 <stm32_clock_control_off+0x60>)
 80521c2:	6849      	ldr	r1, [r1, #4]
 80521c4:	6dd3      	ldr	r3, [r2, #92]	; 0x5c
 80521c6:	ea23 0301 	bic.w	r3, r3, r1
 80521ca:	65d3      	str	r3, [r2, #92]	; 0x5c
 80521cc:	e7e8      	b.n	80521a0 <stm32_clock_control_off+0x1c>
 80521ce:	4a05      	ldr	r2, [pc, #20]	; (80521e4 <stm32_clock_control_off+0x60>)
 80521d0:	6849      	ldr	r1, [r1, #4]
 80521d2:	6e13      	ldr	r3, [r2, #96]	; 0x60
 80521d4:	ea23 0301 	bic.w	r3, r3, r1
 80521d8:	6613      	str	r3, [r2, #96]	; 0x60
 80521da:	e7e1      	b.n	80521a0 <stm32_clock_control_off+0x1c>
 80521dc:	f06f 0022 	mvn.w	r0, #34	; 0x22
 80521e0:	4770      	bx	lr
 80521e2:	bf00      	nop
 80521e4:	40021000 	.word	0x40021000

080521e8 <stm32_clock_control_get_subsys_rate>:
 80521e8:	680b      	ldr	r3, [r1, #0]
 80521ea:	2b04      	cmp	r3, #4
 80521ec:	bf9d      	ittte	ls
 80521ee:	4b04      	ldrls	r3, [pc, #16]	; (8052200 <stm32_clock_control_get_subsys_rate+0x18>)
 80521f0:	2000      	movls	r0, #0
 80521f2:	681b      	ldrls	r3, [r3, #0]
 80521f4:	f06f 0022 	mvnhi.w	r0, #34	; 0x22
 80521f8:	bf98      	it	ls
 80521fa:	6013      	strls	r3, [r2, #0]
 80521fc:	4770      	bx	lr
 80521fe:	bf00      	nop
 8052200:	2000002c 	.word	0x2000002c

08052204 <stm32_clock_control_init>:
 8052204:	2300      	movs	r3, #0
 8052206:	b510      	push	{r4, lr}
 8052208:	4c24      	ldr	r4, [pc, #144]	; (805229c <stm32_clock_control_init+0x98>)
 805220a:	b086      	sub	sp, #24
 805220c:	e9cd 3300 	strd	r3, r3, [sp]
 8052210:	9302      	str	r3, [sp, #8]
 8052212:	f002 fa18 	bl	8054646 <config_enable_default_clocks>
 8052216:	a803      	add	r0, sp, #12
 8052218:	f002 fa0f 	bl	805463a <config_pll_init>
 805221c:	6823      	ldr	r3, [r4, #0]
 805221e:	055a      	lsls	r2, r3, #21
 8052220:	d406      	bmi.n	8052230 <stm32_clock_control_init+0x2c>
 8052222:	6823      	ldr	r3, [r4, #0]
 8052224:	f443 7380 	orr.w	r3, r3, #256	; 0x100
 8052228:	6023      	str	r3, [r4, #0]
 805222a:	6823      	ldr	r3, [r4, #0]
 805222c:	055b      	lsls	r3, r3, #21
 805222e:	d5fc      	bpl.n	805222a <stm32_clock_control_init+0x26>
 8052230:	68a3      	ldr	r3, [r4, #8]
 8052232:	f023 0303 	bic.w	r3, r3, #3
 8052236:	f043 0301 	orr.w	r3, r3, #1
 805223a:	60a3      	str	r3, [r4, #8]
 805223c:	68a3      	ldr	r3, [r4, #8]
 805223e:	f023 03f0 	bic.w	r3, r3, #240	; 0xf0
 8052242:	60a3      	str	r3, [r4, #8]
 8052244:	68a3      	ldr	r3, [r4, #8]
 8052246:	f003 030c 	and.w	r3, r3, #12
 805224a:	2b04      	cmp	r3, #4
 805224c:	d1fa      	bne.n	8052244 <stm32_clock_control_init+0x40>
 805224e:	6823      	ldr	r3, [r4, #0]
 8052250:	4669      	mov	r1, sp
 8052252:	f023 7380 	bic.w	r3, r3, #16777216	; 0x1000000
 8052256:	6023      	str	r3, [r4, #0]
 8052258:	68e3      	ldr	r3, [r4, #12]
 805225a:	a803      	add	r0, sp, #12
 805225c:	f423 03c0 	bic.w	r3, r3, #6291456	; 0x600000
 8052260:	f443 0380 	orr.w	r3, r3, #4194304	; 0x400000
 8052264:	60e3      	str	r3, [r4, #12]
 8052266:	6823      	ldr	r3, [r4, #0]
 8052268:	f043 0308 	orr.w	r3, r3, #8
 805226c:	6023      	str	r3, [r4, #0]
 805226e:	6823      	ldr	r3, [r4, #0]
 8052270:	f023 03f0 	bic.w	r3, r3, #240	; 0xf0
 8052274:	f043 0360 	orr.w	r3, r3, #96	; 0x60
 8052278:	6023      	str	r3, [r4, #0]
 805227a:	6863      	ldr	r3, [r4, #4]
 805227c:	f423 437f 	bic.w	r3, r3, #65280	; 0xff00
 8052280:	6063      	str	r3, [r4, #4]
 8052282:	f000 fe21 	bl	8052ec8 <LL_PLL_ConfigSystemClock_MSI>
 8052286:	2000      	movs	r0, #0
 8052288:	6823      	ldr	r3, [r4, #0]
 805228a:	f423 7380 	bic.w	r3, r3, #256	; 0x100
 805228e:	6023      	str	r3, [r4, #0]
 8052290:	6823      	ldr	r3, [r4, #0]
 8052292:	f423 3380 	bic.w	r3, r3, #65536	; 0x10000
 8052296:	6023      	str	r3, [r4, #0]
 8052298:	b006      	add	sp, #24
 805229a:	bd10      	pop	{r4, pc}
 805229c:	40021000 	.word	0x40021000

080522a0 <z_pinmux_stm32_set>:
 80522a0:	b573      	push	{r0, r1, r4, r5, r6, lr}
 80522a2:	4604      	mov	r4, r0
 80522a4:	0906      	lsrs	r6, r0, #4
 80522a6:	460d      	mov	r5, r1
 80522a8:	4610      	mov	r0, r2
 80522aa:	b912      	cbnz	r2, 80522b2 <z_pinmux_stm32_set+0x12>
 80522ac:	4811      	ldr	r0, [pc, #68]	; (80522f4 <z_pinmux_stm32_set+0x54>)
 80522ae:	f000 febb 	bl	8053028 <z_impl_device_get_binding>
 80522b2:	2301      	movs	r3, #1
 80522b4:	9300      	str	r3, [sp, #0]
 80522b6:	4b10      	ldr	r3, [pc, #64]	; (80522f8 <z_pinmux_stm32_set+0x58>)
 80522b8:	f853 3026 	ldr.w	r3, [r3, r6, lsl #2]
 80522bc:	9301      	str	r3, [sp, #4]
 80522be:	3301      	adds	r3, #1
 80522c0:	d102      	bne.n	80522c8 <z_pinmux_stm32_set+0x28>
 80522c2:	f06f 0004 	mvn.w	r0, #4
 80522c6:	e012      	b.n	80522ee <z_pinmux_stm32_set+0x4e>
 80522c8:	6883      	ldr	r3, [r0, #8]
 80522ca:	4669      	mov	r1, sp
 80522cc:	681b      	ldr	r3, [r3, #0]
 80522ce:	4798      	blx	r3
 80522d0:	2800      	cmp	r0, #0
 80522d2:	d1f6      	bne.n	80522c2 <z_pinmux_stm32_set+0x22>
 80522d4:	1120      	asrs	r0, r4, #4
 80522d6:	0280      	lsls	r0, r0, #10
 80522d8:	f100 4084 	add.w	r0, r0, #1107296256	; 0x42000000
 80522dc:	462a      	mov	r2, r5
 80522de:	f005 030f 	and.w	r3, r5, #15
 80522e2:	f004 010f 	and.w	r1, r4, #15
 80522e6:	f500 3000 	add.w	r0, r0, #131072	; 0x20000
 80522ea:	f002 fa8c 	bl	8054806 <gpio_stm32_configure>
 80522ee:	b002      	add	sp, #8
 80522f0:	bd70      	pop	{r4, r5, r6, pc}
 80522f2:	bf00      	nop
 80522f4:	0805553e 	.word	0x0805553e
 80522f8:	08055198 	.word	0x08055198

080522fc <stm32_setup_pins>:
 80522fc:	b5f8      	push	{r3, r4, r5, r6, r7, lr}
 80522fe:	4604      	mov	r4, r0
 8052300:	460d      	mov	r5, r1
 8052302:	4809      	ldr	r0, [pc, #36]	; (8052328 <stm32_setup_pins+0x2c>)
 8052304:	f000 fe90 	bl	8053028 <z_impl_device_get_binding>
 8052308:	2600      	movs	r6, #0
 805230a:	4607      	mov	r7, r0
 805230c:	42ae      	cmp	r6, r5
 805230e:	f104 0408 	add.w	r4, r4, #8
 8052312:	d100      	bne.n	8052316 <stm32_setup_pins+0x1a>
 8052314:	bdf8      	pop	{r3, r4, r5, r6, r7, pc}
 8052316:	463a      	mov	r2, r7
 8052318:	f854 1c04 	ldr.w	r1, [r4, #-4]
 805231c:	f814 0c08 	ldrb.w	r0, [r4, #-8]
 8052320:	f7ff ffbe 	bl	80522a0 <z_pinmux_stm32_set>
 8052324:	3601      	adds	r6, #1
 8052326:	e7f1      	b.n	805230c <stm32_setup_pins+0x10>
 8052328:	0805553e 	.word	0x0805553e

0805232c <elapsed>:
 805232c:	4b0b      	ldr	r3, [pc, #44]	; (805235c <elapsed+0x30>)
 805232e:	b510      	push	{r4, lr}
 8052330:	689a      	ldr	r2, [r3, #8]
 8052332:	6819      	ldr	r1, [r3, #0]
 8052334:	6898      	ldr	r0, [r3, #8]
 8052336:	f411 3f80 	tst.w	r1, #65536	; 0x10000
 805233a:	4b09      	ldr	r3, [pc, #36]	; (8052360 <elapsed+0x34>)
 805233c:	4909      	ldr	r1, [pc, #36]	; (8052364 <elapsed+0x38>)
 805233e:	d101      	bne.n	8052344 <elapsed+0x18>
 8052340:	4282      	cmp	r2, r0
 8052342:	d205      	bcs.n	8052350 <elapsed+0x24>
 8052344:	681a      	ldr	r2, [r3, #0]
 8052346:	680c      	ldr	r4, [r1, #0]
 8052348:	4422      	add	r2, r4
 805234a:	601a      	str	r2, [r3, #0]
 805234c:	4a03      	ldr	r2, [pc, #12]	; (805235c <elapsed+0x30>)
 805234e:	6812      	ldr	r2, [r2, #0]
 8052350:	681b      	ldr	r3, [r3, #0]
 8052352:	680a      	ldr	r2, [r1, #0]
 8052354:	4413      	add	r3, r2
 8052356:	1a18      	subs	r0, r3, r0
 8052358:	bd10      	pop	{r4, pc}
 805235a:	bf00      	nop
 805235c:	e000e010 	.word	0xe000e010
 8052360:	20000578 	.word	0x20000578
 8052364:	20000574 	.word	0x20000574

08052368 <z_clock_isr>:
 8052368:	b508      	push	{r3, lr}
 805236a:	f7ff ffdf 	bl	805232c <elapsed>
 805236e:	4b0b      	ldr	r3, [pc, #44]	; (805239c <z_clock_isr+0x34>)
 8052370:	4a0b      	ldr	r2, [pc, #44]	; (80523a0 <z_clock_isr+0x38>)
 8052372:	6818      	ldr	r0, [r3, #0]
 8052374:	6811      	ldr	r1, [r2, #0]
 8052376:	4408      	add	r0, r1
 8052378:	6010      	str	r0, [r2, #0]
 805237a:	2200      	movs	r2, #0
 805237c:	601a      	str	r2, [r3, #0]
 805237e:	4a09      	ldr	r2, [pc, #36]	; (80523a4 <z_clock_isr+0x3c>)
 8052380:	4b09      	ldr	r3, [pc, #36]	; (80523a8 <z_clock_isr+0x40>)
 8052382:	6811      	ldr	r1, [r2, #0]
 8052384:	1a40      	subs	r0, r0, r1
 8052386:	fbb0 f0f3 	udiv	r0, r0, r3
 805238a:	fb03 1300 	mla	r3, r3, r0, r1
 805238e:	6013      	str	r3, [r2, #0]
 8052390:	f001 fbec 	bl	8053b6c <z_clock_announce>
 8052394:	e8bd 4008 	ldmia.w	sp!, {r3, lr}
 8052398:	f000 bab2 	b.w	8052900 <z_arm_exc_exit>
 805239c:	20000578 	.word	0x20000578
 80523a0:	20000570 	.word	0x20000570
 80523a4:	2000056c 	.word	0x2000056c
 80523a8:	0001adb0 	.word	0x0001adb0

080523ac <z_clock_driver_init>:
 80523ac:	2220      	movs	r2, #32
 80523ae:	2000      	movs	r0, #0
 80523b0:	4b07      	ldr	r3, [pc, #28]	; (80523d0 <z_clock_driver_init+0x24>)
 80523b2:	f883 2023 	strb.w	r2, [r3, #35]	; 0x23
 80523b6:	4a07      	ldr	r2, [pc, #28]	; (80523d4 <z_clock_driver_init+0x28>)
 80523b8:	4b07      	ldr	r3, [pc, #28]	; (80523d8 <z_clock_driver_init+0x2c>)
 80523ba:	601a      	str	r2, [r3, #0]
 80523bc:	4b07      	ldr	r3, [pc, #28]	; (80523dc <z_clock_driver_init+0x30>)
 80523be:	6018      	str	r0, [r3, #0]
 80523c0:	4b07      	ldr	r3, [pc, #28]	; (80523e0 <z_clock_driver_init+0x34>)
 80523c2:	605a      	str	r2, [r3, #4]
 80523c4:	6098      	str	r0, [r3, #8]
 80523c6:	681a      	ldr	r2, [r3, #0]
 80523c8:	f042 0207 	orr.w	r2, r2, #7
 80523cc:	601a      	str	r2, [r3, #0]
 80523ce:	4770      	bx	lr
 80523d0:	e000ed00 	.word	0xe000ed00
 80523d4:	0001adaf 	.word	0x0001adaf
 80523d8:	20000574 	.word	0x20000574
 80523dc:	20000578 	.word	0x20000578
 80523e0:	e000e010 	.word	0xe000e010

080523e4 <z_clock_set_timeout>:
 80523e4:	b570      	push	{r4, r5, r6, lr}
 80523e6:	4604      	mov	r4, r0
 80523e8:	4d27      	ldr	r5, [pc, #156]	; (8052488 <z_clock_set_timeout+0xa4>)
 80523ea:	b151      	cbz	r1, 8052402 <z_clock_set_timeout+0x1e>
 80523ec:	1c42      	adds	r2, r0, #1
 80523ee:	d10b      	bne.n	8052408 <z_clock_set_timeout+0x24>
 80523f0:	4a26      	ldr	r2, [pc, #152]	; (805248c <z_clock_set_timeout+0xa8>)
 80523f2:	6813      	ldr	r3, [r2, #0]
 80523f4:	f023 0301 	bic.w	r3, r3, #1
 80523f8:	6013      	str	r3, [r2, #0]
 80523fa:	f04f 437f 	mov.w	r3, #4278190080	; 0xff000000
 80523fe:	602b      	str	r3, [r5, #0]
 8052400:	bd70      	pop	{r4, r5, r6, pc}
 8052402:	1c43      	adds	r3, r0, #1
 8052404:	bf08      	it	eq
 8052406:	2497      	moveq	r4, #151	; 0x97
 8052408:	f04f 0320 	mov.w	r3, #32
 805240c:	f3ef 8611 	mrs	r6, BASEPRI
 8052410:	f383 8811 	msr	BASEPRI, r3
 8052414:	f3bf 8f6f 	isb	sy
 8052418:	f7ff ff88 	bl	805232c <elapsed>
 805241c:	4b1c      	ldr	r3, [pc, #112]	; (8052490 <z_clock_set_timeout+0xac>)
 805241e:	681a      	ldr	r2, [r3, #0]
 8052420:	4410      	add	r0, r2
 8052422:	2200      	movs	r2, #0
 8052424:	6018      	str	r0, [r3, #0]
 8052426:	4b1b      	ldr	r3, [pc, #108]	; (8052494 <z_clock_set_timeout+0xb0>)
 8052428:	601a      	str	r2, [r3, #0]
 805242a:	4b1b      	ldr	r3, [pc, #108]	; (8052498 <z_clock_set_timeout+0xb4>)
 805242c:	681b      	ldr	r3, [r3, #0]
 805242e:	1ac2      	subs	r2, r0, r3
 8052430:	d50d      	bpl.n	805244e <z_clock_set_timeout+0x6a>
 8052432:	f641 23db 	movw	r3, #6875	; 0x1adb
 8052436:	602b      	str	r3, [r5, #0]
 8052438:	682b      	ldr	r3, [r5, #0]
 805243a:	4a14      	ldr	r2, [pc, #80]	; (805248c <z_clock_set_timeout+0xa8>)
 805243c:	3b01      	subs	r3, #1
 805243e:	6053      	str	r3, [r2, #4]
 8052440:	2300      	movs	r3, #0
 8052442:	6093      	str	r3, [r2, #8]
 8052444:	f386 8811 	msr	BASEPRI, r6
 8052448:	f3bf 8f6f 	isb	sy
 805244c:	e7d8      	b.n	8052400 <z_clock_set_timeout+0x1c>
 805244e:	3c01      	subs	r4, #1
 8052450:	ea24 74e4 	bic.w	r4, r4, r4, asr #31
 8052454:	2c97      	cmp	r4, #151	; 0x97
 8052456:	bfa8      	it	ge
 8052458:	2497      	movge	r4, #151	; 0x97
 805245a:	4910      	ldr	r1, [pc, #64]	; (805249c <z_clock_set_timeout+0xb8>)
 805245c:	f502 32d6 	add.w	r2, r2, #109568	; 0x1ac00
 8052460:	f202 12af 	addw	r2, r2, #431	; 0x1af
 8052464:	fb01 2404 	mla	r4, r1, r4, r2
 8052468:	fbb4 f4f1 	udiv	r4, r4, r1
 805246c:	1a18      	subs	r0, r3, r0
 805246e:	f641 23db 	movw	r3, #6875	; 0x1adb
 8052472:	fb01 0404 	mla	r4, r1, r4, r0
 8052476:	429c      	cmp	r4, r3
 8052478:	d904      	bls.n	8052484 <z_clock_set_timeout+0xa0>
 805247a:	4b09      	ldr	r3, [pc, #36]	; (80524a0 <z_clock_set_timeout+0xbc>)
 805247c:	429c      	cmp	r4, r3
 805247e:	d8da      	bhi.n	8052436 <z_clock_set_timeout+0x52>
 8052480:	602c      	str	r4, [r5, #0]
 8052482:	e7d9      	b.n	8052438 <z_clock_set_timeout+0x54>
 8052484:	461c      	mov	r4, r3
 8052486:	e7fb      	b.n	8052480 <z_clock_set_timeout+0x9c>
 8052488:	20000574 	.word	0x20000574
 805248c:	e000e010 	.word	0xe000e010
 8052490:	20000570 	.word	0x20000570
 8052494:	20000578 	.word	0x20000578
 8052498:	2000056c 	.word	0x2000056c
 805249c:	0001adb0 	.word	0x0001adb0
 80524a0:	00fd72d0 	.word	0x00fd72d0

080524a4 <z_clock_elapsed>:
 80524a4:	b510      	push	{r4, lr}
 80524a6:	f04f 0320 	mov.w	r3, #32
 80524aa:	f3ef 8411 	mrs	r4, BASEPRI
 80524ae:	f383 8811 	msr	BASEPRI, r3
 80524b2:	f3bf 8f6f 	isb	sy
 80524b6:	f7ff ff39 	bl	805232c <elapsed>
 80524ba:	4b07      	ldr	r3, [pc, #28]	; (80524d8 <z_clock_elapsed+0x34>)
 80524bc:	4a07      	ldr	r2, [pc, #28]	; (80524dc <z_clock_elapsed+0x38>)
 80524be:	681b      	ldr	r3, [r3, #0]
 80524c0:	6812      	ldr	r2, [r2, #0]
 80524c2:	1a9b      	subs	r3, r3, r2
 80524c4:	4403      	add	r3, r0
 80524c6:	f384 8811 	msr	BASEPRI, r4
 80524ca:	f3bf 8f6f 	isb	sy
 80524ce:	4804      	ldr	r0, [pc, #16]	; (80524e0 <z_clock_elapsed+0x3c>)
 80524d0:	fbb3 f0f0 	udiv	r0, r3, r0
 80524d4:	bd10      	pop	{r4, pc}
 80524d6:	bf00      	nop
 80524d8:	20000570 	.word	0x20000570
 80524dc:	2000056c 	.word	0x2000056c
 80524e0:	0001adb0 	.word	0x0001adb0

080524e4 <sys_clock_disable>:
 80524e4:	4a02      	ldr	r2, [pc, #8]	; (80524f0 <sys_clock_disable+0xc>)
 80524e6:	6813      	ldr	r3, [r2, #0]
 80524e8:	f023 0301 	bic.w	r3, r3, #1
 80524ec:	6013      	str	r3, [r2, #0]
 80524ee:	4770      	bx	lr
 80524f0:	e000e010 	.word	0xe000e010

080524f4 <arch_swap>:
 80524f4:	4a0a      	ldr	r2, [pc, #40]	; (8052520 <arch_swap+0x2c>)
 80524f6:	490b      	ldr	r1, [pc, #44]	; (8052524 <arch_swap+0x30>)
 80524f8:	6893      	ldr	r3, [r2, #8]
 80524fa:	6809      	ldr	r1, [r1, #0]
 80524fc:	f8c3 00ac 	str.w	r0, [r3, #172]	; 0xac
 8052500:	f8c3 10b0 	str.w	r1, [r3, #176]	; 0xb0
 8052504:	4908      	ldr	r1, [pc, #32]	; (8052528 <arch_swap+0x34>)
 8052506:	684b      	ldr	r3, [r1, #4]
 8052508:	f043 5380 	orr.w	r3, r3, #268435456	; 0x10000000
 805250c:	604b      	str	r3, [r1, #4]
 805250e:	2300      	movs	r3, #0
 8052510:	f383 8811 	msr	BASEPRI, r3
 8052514:	f3bf 8f6f 	isb	sy
 8052518:	6893      	ldr	r3, [r2, #8]
 805251a:	f8d3 00b0 	ldr.w	r0, [r3, #176]	; 0xb0
 805251e:	4770      	bx	lr
 8052520:	20001838 	.word	0x20001838
 8052524:	08055318 	.word	0x08055318
 8052528:	e000ed00 	.word	0xe000ed00

0805252c <z_arm_pendsv>:
 805252c:	4910      	ldr	r1, [pc, #64]	; (8052570 <z_arm_pendsv+0x44>)
 805252e:	688a      	ldr	r2, [r1, #8]
 8052530:	f04f 0038 	mov.w	r0, #56	; 0x38
 8052534:	4410      	add	r0, r2
 8052536:	f3ef 8c09 	mrs	ip, PSP
 805253a:	e880 1ff0 	stmia.w	r0, {r4, r5, r6, r7, r8, r9, sl, fp, ip}
 805253e:	2020      	movs	r0, #32
 8052540:	f380 8811 	msr	BASEPRI, r0
 8052544:	f3bf 8f6f 	isb	sy
 8052548:	4f0a      	ldr	r7, [pc, #40]	; (8052574 <z_arm_pendsv+0x48>)
 805254a:	f04f 6600 	mov.w	r6, #134217728	; 0x8000000
 805254e:	6a0a      	ldr	r2, [r1, #32]
 8052550:	608a      	str	r2, [r1, #8]
 8052552:	603e      	str	r6, [r7, #0]
 8052554:	f8d2 00ac 	ldr.w	r0, [r2, #172]	; 0xac
 8052558:	2300      	movs	r3, #0
 805255a:	f8c2 30ac 	str.w	r3, [r2, #172]	; 0xac
 805255e:	f380 8811 	msr	BASEPRI, r0
 8052562:	f102 0038 	add.w	r0, r2, #56	; 0x38
 8052566:	e890 1ff0 	ldmia.w	r0, {r4, r5, r6, r7, r8, r9, sl, fp, ip}
 805256a:	f38c 8809 	msr	PSP, ip
 805256e:	4770      	bx	lr
 8052570:	20001838 	.word	0x20001838
 8052574:	e000ed04 	.word	0xe000ed04

08052578 <z_arm_svc>:
 8052578:	f01e 0f04 	tst.w	lr, #4
 805257c:	bf0c      	ite	eq
 805257e:	f3ef 8008 	mrseq	r0, MSP
 8052582:	f3ef 8009 	mrsne	r0, PSP
 8052586:	6981      	ldr	r1, [r0, #24]
 8052588:	f811 1c02 	ldrb.w	r1, [r1, #-2]
 805258c:	2902      	cmp	r1, #2
 805258e:	d0ff      	beq.n	8052590 <_oops>

08052590 <_oops>:
 8052590:	b501      	push	{r0, lr}
 8052592:	f002 f85f 	bl	8054654 <z_do_kernel_oops>
 8052596:	bd01      	pop	{r0, pc}

08052598 <arch_irq_enable>:
 8052598:	b243      	sxtb	r3, r0
 805259a:	2b00      	cmp	r3, #0
 805259c:	db08      	blt.n	80525b0 <arch_irq_enable+0x18>
 805259e:	2201      	movs	r2, #1
 80525a0:	f000 001f 	and.w	r0, r0, #31
 80525a4:	fa02 f000 	lsl.w	r0, r2, r0
 80525a8:	4a02      	ldr	r2, [pc, #8]	; (80525b4 <arch_irq_enable+0x1c>)
 80525aa:	095b      	lsrs	r3, r3, #5
 80525ac:	f842 0023 	str.w	r0, [r2, r3, lsl #2]
 80525b0:	4770      	bx	lr
 80525b2:	bf00      	nop
 80525b4:	e000e100 	.word	0xe000e100

080525b8 <z_arm_irq_priority_set>:
 80525b8:	b243      	sxtb	r3, r0
 80525ba:	2b00      	cmp	r3, #0
 80525bc:	f101 0101 	add.w	r1, r1, #1
 80525c0:	bfac      	ite	ge
 80525c2:	f103 4360 	addge.w	r3, r3, #3758096384	; 0xe0000000
 80525c6:	4b06      	ldrlt	r3, [pc, #24]	; (80525e0 <z_arm_irq_priority_set+0x28>)
 80525c8:	ea4f 1141 	mov.w	r1, r1, lsl #5
 80525cc:	b2c9      	uxtb	r1, r1
 80525ce:	bfab      	itete	ge
 80525d0:	f503 4361 	addge.w	r3, r3, #57600	; 0xe100
 80525d4:	f000 000f 	andlt.w	r0, r0, #15
 80525d8:	f883 1300 	strbge.w	r1, [r3, #768]	; 0x300
 80525dc:	5419      	strblt	r1, [r3, r0]
 80525de:	4770      	bx	lr
 80525e0:	e000ed14 	.word	0xe000ed14

080525e4 <arch_new_thread>:
 80525e4:	f842 3c20 	str.w	r3, [r2, #-32]
 80525e8:	9b00      	ldr	r3, [sp, #0]
 80525ea:	490b      	ldr	r1, [pc, #44]	; (8052618 <arch_new_thread+0x34>)
 80525ec:	f842 3c1c 	str.w	r3, [r2, #-28]
 80525f0:	9b01      	ldr	r3, [sp, #4]
 80525f2:	f021 0101 	bic.w	r1, r1, #1
 80525f6:	f842 3c18 	str.w	r3, [r2, #-24]
 80525fa:	9b02      	ldr	r3, [sp, #8]
 80525fc:	f842 1c08 	str.w	r1, [r2, #-8]
 8052600:	f842 3c14 	str.w	r3, [r2, #-20]
 8052604:	f04f 7380 	mov.w	r3, #16777216	; 0x1000000
 8052608:	f842 3c04 	str.w	r3, [r2, #-4]
 805260c:	2300      	movs	r3, #0
 805260e:	3a20      	subs	r2, #32
 8052610:	6582      	str	r2, [r0, #88]	; 0x58
 8052612:	f8c0 30ac 	str.w	r3, [r0, #172]	; 0xac
 8052616:	4770      	bx	lr
 8052618:	08054327 	.word	0x08054327

0805261c <arch_switch_to_main_thread>:
 805261c:	4b07      	ldr	r3, [pc, #28]	; (805263c <arch_switch_to_main_thread+0x20>)
 805261e:	6098      	str	r0, [r3, #8]
 8052620:	4610      	mov	r0, r2
 8052622:	f381 8809 	msr	PSP, r1
 8052626:	2100      	movs	r1, #0
 8052628:	b663      	cpsie	if
 805262a:	f381 8811 	msr	BASEPRI, r1
 805262e:	f3bf 8f6f 	isb	sy
 8052632:	2200      	movs	r2, #0
 8052634:	2300      	movs	r3, #0
 8052636:	f001 fe76 	bl	8054326 <z_thread_entry>
 805263a:	bf00      	nop
 805263c:	20001838 	.word	0x20001838

08052640 <z_arm_cpu_idle_init>:
 8052640:	4901      	ldr	r1, [pc, #4]	; (8052648 <z_arm_cpu_idle_init+0x8>)
 8052642:	2210      	movs	r2, #16
 8052644:	600a      	str	r2, [r1, #0]
 8052646:	4770      	bx	lr
 8052648:	e000ed10 	.word	0xe000ed10

0805264c <arch_cpu_idle>:
 805264c:	b672      	cpsid	i
 805264e:	4040      	eors	r0, r0
 8052650:	f380 8811 	msr	BASEPRI, r0
 8052654:	f3bf 8f6f 	isb	sy
 8052658:	f3bf 8f4f 	dsb	sy
 805265c:	bf30      	wfi
 805265e:	b662      	cpsie	i
 8052660:	f3bf 8f6f 	isb	sy
 8052664:	4770      	bx	lr
 8052666:	bf00      	nop

08052668 <DefaultHandler>:
 8052668:	b508      	push	{r3, lr}
 805266a:	4804      	ldr	r0, [pc, #16]	; (805267c <DefaultHandler+0x14>)
 805266c:	f001 fb59 	bl	8053d22 <printk>
 8052670:	e8bd 4008 	ldmia.w	sp!, {r3, lr}
 8052674:	2000      	movs	r0, #0
 8052676:	f7ff bc6d 	b.w	8051f54 <sys_reboot>
 805267a:	bf00      	nop
 805267c:	08055551 	.word	0x08055551

08052680 <z_arm_nmi_init>:
 8052680:	4b01      	ldr	r3, [pc, #4]	; (8052688 <z_arm_nmi_init+0x8>)
 8052682:	4a02      	ldr	r2, [pc, #8]	; (805268c <z_arm_nmi_init+0xc>)
 8052684:	601a      	str	r2, [r3, #0]
 8052686:	4770      	bx	lr
 8052688:	2000001c 	.word	0x2000001c
 805268c:	08052669 	.word	0x08052669

08052690 <z_arm_nmi>:
 8052690:	b508      	push	{r3, lr}
 8052692:	4b03      	ldr	r3, [pc, #12]	; (80526a0 <z_arm_nmi+0x10>)
 8052694:	681b      	ldr	r3, [r3, #0]
 8052696:	4798      	blx	r3
 8052698:	e8bd 4008 	ldmia.w	sp!, {r3, lr}
 805269c:	f000 b930 	b.w	8052900 <z_arm_exc_exit>
 80526a0:	2000001c 	.word	0x2000001c

080526a4 <z_SysNmiOnReset>:
 80526a4:	bf30      	wfi
 80526a6:	f7ff bffd 	b.w	80526a4 <z_SysNmiOnReset>
 80526aa:	bf00      	nop

080526ac <z_arm_prep_c>:
 80526ac:	4a0e      	ldr	r2, [pc, #56]	; (80526e8 <z_arm_prep_c+0x3c>)
 80526ae:	b508      	push	{r3, lr}
 80526b0:	4b0e      	ldr	r3, [pc, #56]	; (80526ec <z_arm_prep_c+0x40>)
 80526b2:	f022 027f 	bic.w	r2, r2, #127	; 0x7f
 80526b6:	609a      	str	r2, [r3, #8]
 80526b8:	f3bf 8f4f 	dsb	sy
 80526bc:	f3bf 8f6f 	isb	sy
 80526c0:	f8d3 2088 	ldr.w	r2, [r3, #136]	; 0x88
 80526c4:	f422 0270 	bic.w	r2, r2, #15728640	; 0xf00000
 80526c8:	f8c3 2088 	str.w	r2, [r3, #136]	; 0x88
 80526cc:	f3ef 8314 	mrs	r3, CONTROL
 80526d0:	f023 0304 	bic.w	r3, r3, #4
 80526d4:	f383 8814 	msr	CONTROL, r3
 80526d8:	f000 fcce 	bl	8053078 <z_bss_zero>
 80526dc:	f000 fcd6 	bl	805308c <z_data_copy>
 80526e0:	f000 f92e 	bl	8052940 <z_arm_interrupt_init>
 80526e4:	f000 fd10 	bl	8053108 <z_cstart>
 80526e8:	08051400 	.word	0x08051400
 80526ec:	e000ed00 	.word	0xe000ed00

080526f0 <_isr_wrapper>:
 80526f0:	b501      	push	{r0, lr}
 80526f2:	f3ef 8005 	mrs	r0, IPSR
 80526f6:	f1a0 0010 	sub.w	r0, r0, #16
 80526fa:	ea4f 00c0 	mov.w	r0, r0, lsl #3
 80526fe:	4904      	ldr	r1, [pc, #16]	; (8052710 <_isr_wrapper+0x20>)
 8052700:	4401      	add	r1, r0
 8052702:	c909      	ldmia	r1!, {r0, r3}
 8052704:	4798      	blx	r3
 8052706:	e8bd 4001 	ldmia.w	sp!, {r0, lr}
 805270a:	4902      	ldr	r1, [pc, #8]	; (8052714 <_isr_wrapper+0x24>)
 805270c:	4708      	bx	r1
 805270e:	0000      	.short	0x0000
 8052710:	08054e38 	.word	0x08054e38
 8052714:	08052901 	.word	0x08052901

08052718 <__start>:
 8052718:	2020      	movs	r0, #32
 805271a:	f380 8811 	msr	BASEPRI, r0
 805271e:	480b      	ldr	r0, [pc, #44]	; (805274c <__start+0x34>)
 8052720:	f04f 01aa 	mov.w	r1, #170	; 0xaa
 8052724:	f44f 6200 	mov.w	r2, #2048	; 0x800
 8052728:	f001 ffe2 	bl	80546f0 <memset>
 805272c:	4807      	ldr	r0, [pc, #28]	; (805274c <__start+0x34>)
 805272e:	f44f 6100 	mov.w	r1, #2048	; 0x800
 8052732:	1840      	adds	r0, r0, r1
 8052734:	f380 8809 	msr	PSP, r0
 8052738:	f3ef 8014 	mrs	r0, CONTROL
 805273c:	2102      	movs	r1, #2
 805273e:	4308      	orrs	r0, r1
 8052740:	f380 8814 	msr	CONTROL, r0
 8052744:	f3bf 8f6f 	isb	sy
 8052748:	f7ff ffb0 	bl	80526ac <z_arm_prep_c>
 805274c:	200029c8 	.word	0x200029c8

08052750 <z_arm_bus_fault>:
 8052750:	f3ef 8008 	mrs	r0, MSP
 8052754:	f3ef 8109 	mrs	r1, PSP
 8052758:	b501      	push	{r0, lr}
 805275a:	4672      	mov	r2, lr
 805275c:	f000 f84e 	bl	80527fc <z_arm_fault>
 8052760:	bd01      	pop	{r0, pc}
 8052762:	bf00      	nop

08052764 <mem_manage_fault.isra.0>:
 8052764:	4b0c      	ldr	r3, [pc, #48]	; (8052798 <mem_manage_fault.isra.0+0x34>)
 8052766:	6a9a      	ldr	r2, [r3, #40]	; 0x28
 8052768:	6a9a      	ldr	r2, [r3, #40]	; 0x28
 805276a:	6a9a      	ldr	r2, [r3, #40]	; 0x28
 805276c:	0792      	lsls	r2, r2, #30
 805276e:	d508      	bpl.n	8052782 <mem_manage_fault.isra.0+0x1e>
 8052770:	6b5a      	ldr	r2, [r3, #52]	; 0x34
 8052772:	6a9a      	ldr	r2, [r3, #40]	; 0x28
 8052774:	0612      	lsls	r2, r2, #24
 8052776:	d504      	bpl.n	8052782 <mem_manage_fault.isra.0+0x1e>
 8052778:	b118      	cbz	r0, 8052782 <mem_manage_fault.isra.0+0x1e>
 805277a:	6a9a      	ldr	r2, [r3, #40]	; 0x28
 805277c:	f022 0280 	bic.w	r2, r2, #128	; 0x80
 8052780:	629a      	str	r2, [r3, #40]	; 0x28
 8052782:	2000      	movs	r0, #0
 8052784:	4b04      	ldr	r3, [pc, #16]	; (8052798 <mem_manage_fault.isra.0+0x34>)
 8052786:	6a9a      	ldr	r2, [r3, #40]	; 0x28
 8052788:	6a9a      	ldr	r2, [r3, #40]	; 0x28
 805278a:	6a9a      	ldr	r2, [r3, #40]	; 0x28
 805278c:	6a9a      	ldr	r2, [r3, #40]	; 0x28
 805278e:	f042 02ff 	orr.w	r2, r2, #255	; 0xff
 8052792:	629a      	str	r2, [r3, #40]	; 0x28
 8052794:	7008      	strb	r0, [r1, #0]
 8052796:	4770      	bx	lr
 8052798:	e000ed00 	.word	0xe000ed00

0805279c <bus_fault.isra.0>:
 805279c:	4b0d      	ldr	r3, [pc, #52]	; (80527d4 <bus_fault.isra.0+0x38>)
 805279e:	6a9a      	ldr	r2, [r3, #40]	; 0x28
 80527a0:	6a9a      	ldr	r2, [r3, #40]	; 0x28
 80527a2:	6a9a      	ldr	r2, [r3, #40]	; 0x28
 80527a4:	0592      	lsls	r2, r2, #22
 80527a6:	d508      	bpl.n	80527ba <bus_fault.isra.0+0x1e>
 80527a8:	6b9a      	ldr	r2, [r3, #56]	; 0x38
 80527aa:	6a9a      	ldr	r2, [r3, #40]	; 0x28
 80527ac:	0412      	lsls	r2, r2, #16
 80527ae:	d504      	bpl.n	80527ba <bus_fault.isra.0+0x1e>
 80527b0:	b118      	cbz	r0, 80527ba <bus_fault.isra.0+0x1e>
 80527b2:	6a9a      	ldr	r2, [r3, #40]	; 0x28
 80527b4:	f422 4200 	bic.w	r2, r2, #32768	; 0x8000
 80527b8:	629a      	str	r2, [r3, #40]	; 0x28
 80527ba:	2000      	movs	r0, #0
 80527bc:	4b05      	ldr	r3, [pc, #20]	; (80527d4 <bus_fault.isra.0+0x38>)
 80527be:	6a9a      	ldr	r2, [r3, #40]	; 0x28
 80527c0:	6a9a      	ldr	r2, [r3, #40]	; 0x28
 80527c2:	05d2      	lsls	r2, r2, #23
 80527c4:	bf58      	it	pl
 80527c6:	6a9a      	ldrpl	r2, [r3, #40]	; 0x28
 80527c8:	6a9a      	ldr	r2, [r3, #40]	; 0x28
 80527ca:	f442 427f 	orr.w	r2, r2, #65280	; 0xff00
 80527ce:	629a      	str	r2, [r3, #40]	; 0x28
 80527d0:	7008      	strb	r0, [r1, #0]
 80527d2:	4770      	bx	lr
 80527d4:	e000ed00 	.word	0xe000ed00

080527d8 <usage_fault.isra.0>:
 80527d8:	4b07      	ldr	r3, [pc, #28]	; (80527f8 <usage_fault.isra.0+0x20>)
 80527da:	2000      	movs	r0, #0
 80527dc:	6a9a      	ldr	r2, [r3, #40]	; 0x28
 80527de:	6a9a      	ldr	r2, [r3, #40]	; 0x28
 80527e0:	6a9a      	ldr	r2, [r3, #40]	; 0x28
 80527e2:	6a9a      	ldr	r2, [r3, #40]	; 0x28
 80527e4:	6a9a      	ldr	r2, [r3, #40]	; 0x28
 80527e6:	6a9a      	ldr	r2, [r3, #40]	; 0x28
 80527e8:	6a9a      	ldr	r2, [r3, #40]	; 0x28
 80527ea:	6a9a      	ldr	r2, [r3, #40]	; 0x28
 80527ec:	ea6f 4202 	mvn.w	r2, r2, lsl #16
 80527f0:	ea6f 4212 	mvn.w	r2, r2, lsr #16
 80527f4:	629a      	str	r2, [r3, #40]	; 0x28
 80527f6:	4770      	bx	lr
 80527f8:	e000ed00 	.word	0xe000ed00

080527fc <z_arm_fault>:
 80527fc:	b570      	push	{r4, r5, r6, lr}
 80527fe:	4b39      	ldr	r3, [pc, #228]	; (80528e4 <z_arm_fault+0xe8>)
 8052800:	4606      	mov	r6, r0
 8052802:	685b      	ldr	r3, [r3, #4]
 8052804:	2500      	movs	r5, #0
 8052806:	b08a      	sub	sp, #40	; 0x28
 8052808:	f3c3 0308 	ubfx	r3, r3, #0, #9
 805280c:	f385 8811 	msr	BASEPRI, r5
 8052810:	f3bf 8f6f 	isb	sy
 8052814:	f002 407f 	and.w	r0, r2, #4278190080	; 0xff000000
 8052818:	f1b0 4f7f 	cmp.w	r0, #4278190080	; 0xff000000
 805281c:	d116      	bne.n	805284c <z_arm_fault+0x50>
 805281e:	07d0      	lsls	r0, r2, #31
 8052820:	d414      	bmi.n	805284c <z_arm_fault+0x50>
 8052822:	0654      	lsls	r4, r2, #25
 8052824:	d403      	bmi.n	805282e <z_arm_fault+0x32>
 8052826:	0710      	lsls	r0, r2, #28
 8052828:	d404      	bmi.n	8052834 <z_arm_fault+0x38>
 805282a:	2501      	movs	r5, #1
 805282c:	e004      	b.n	8052838 <z_arm_fault+0x3c>
 805282e:	f012 0504 	ands.w	r5, r2, #4
 8052832:	d001      	beq.n	8052838 <z_arm_fault+0x3c>
 8052834:	460e      	mov	r6, r1
 8052836:	2500      	movs	r5, #0
 8052838:	2200      	movs	r2, #0
 805283a:	3b03      	subs	r3, #3
 805283c:	f88d 2007 	strb.w	r2, [sp, #7]
 8052840:	2b03      	cmp	r3, #3
 8052842:	d847      	bhi.n	80528d4 <z_arm_fault+0xd8>
 8052844:	e8df f003 	tbb	[pc, r3]
 8052848:	3b423e04 	.word	0x3b423e04
 805284c:	462e      	mov	r6, r5
 805284e:	e7f3      	b.n	8052838 <z_arm_fault+0x3c>
 8052850:	4b24      	ldr	r3, [pc, #144]	; (80528e4 <z_arm_fault+0xe8>)
 8052852:	6ada      	ldr	r2, [r3, #44]	; 0x2c
 8052854:	0792      	lsls	r2, r2, #30
 8052856:	d43d      	bmi.n	80528d4 <z_arm_fault+0xd8>
 8052858:	6adc      	ldr	r4, [r3, #44]	; 0x2c
 805285a:	f014 4480 	ands.w	r4, r4, #1073741824	; 0x40000000
 805285e:	d008      	beq.n	8052872 <z_arm_fault+0x76>
 8052860:	3328      	adds	r3, #40	; 0x28
 8052862:	781b      	ldrb	r3, [r3, #0]
 8052864:	b1eb      	cbz	r3, 80528a2 <z_arm_fault+0xa6>
 8052866:	2001      	movs	r0, #1
 8052868:	f10d 0107 	add.w	r1, sp, #7
 805286c:	f7ff ff7a 	bl	8052764 <mem_manage_fault.isra.0>
 8052870:	4604      	mov	r4, r0
 8052872:	f89d 3007 	ldrb.w	r3, [sp, #7]
 8052876:	b993      	cbnz	r3, 805289e <z_arm_fault+0xa2>
 8052878:	2220      	movs	r2, #32
 805287a:	4631      	mov	r1, r6
 805287c:	a802      	add	r0, sp, #8
 805287e:	f001 ff0c 	bl	805469a <memcpy>
 8052882:	9b09      	ldr	r3, [sp, #36]	; 0x24
 8052884:	b345      	cbz	r5, 80528d8 <z_arm_fault+0xdc>
 8052886:	f3c3 0208 	ubfx	r2, r3, #0, #9
 805288a:	b922      	cbnz	r2, 8052896 <z_arm_fault+0x9a>
 805288c:	ea6f 2353 	mvn.w	r3, r3, lsr #9
 8052890:	ea6f 2343 	mvn.w	r3, r3, lsl #9
 8052894:	9309      	str	r3, [sp, #36]	; 0x24
 8052896:	4620      	mov	r0, r4
 8052898:	a902      	add	r1, sp, #8
 805289a:	f001 fed9 	bl	8054650 <z_arm_fatal_error>
 805289e:	b00a      	add	sp, #40	; 0x28
 80528a0:	bd70      	pop	{r4, r5, r6, pc}
 80528a2:	4b11      	ldr	r3, [pc, #68]	; (80528e8 <z_arm_fault+0xec>)
 80528a4:	781b      	ldrb	r3, [r3, #0]
 80528a6:	b12b      	cbz	r3, 80528b4 <z_arm_fault+0xb8>
 80528a8:	2001      	movs	r0, #1
 80528aa:	f10d 0107 	add.w	r1, sp, #7
 80528ae:	f7ff ff75 	bl	805279c <bus_fault.isra.0>
 80528b2:	e7dd      	b.n	8052870 <z_arm_fault+0x74>
 80528b4:	4b0d      	ldr	r3, [pc, #52]	; (80528ec <z_arm_fault+0xf0>)
 80528b6:	8818      	ldrh	r0, [r3, #0]
 80528b8:	b284      	uxth	r4, r0
 80528ba:	2c00      	cmp	r4, #0
 80528bc:	d0d9      	beq.n	8052872 <z_arm_fault+0x76>
 80528be:	f7ff ff8b 	bl	80527d8 <usage_fault.isra.0>
 80528c2:	e7d5      	b.n	8052870 <z_arm_fault+0x74>
 80528c4:	2000      	movs	r0, #0
 80528c6:	f10d 0107 	add.w	r1, sp, #7
 80528ca:	e7cf      	b.n	805286c <z_arm_fault+0x70>
 80528cc:	2000      	movs	r0, #0
 80528ce:	f10d 0107 	add.w	r1, sp, #7
 80528d2:	e7ec      	b.n	80528ae <z_arm_fault+0xb2>
 80528d4:	2400      	movs	r4, #0
 80528d6:	e7cc      	b.n	8052872 <z_arm_fault+0x76>
 80528d8:	f423 73ff 	bic.w	r3, r3, #510	; 0x1fe
 80528dc:	f023 0301 	bic.w	r3, r3, #1
 80528e0:	e7d8      	b.n	8052894 <z_arm_fault+0x98>
 80528e2:	bf00      	nop
 80528e4:	e000ed00 	.word	0xe000ed00
 80528e8:	e000ed29 	.word	0xe000ed29
 80528ec:	e000ed2a 	.word	0xe000ed2a

080528f0 <z_arm_fault_init>:
 80528f0:	4a02      	ldr	r2, [pc, #8]	; (80528fc <z_arm_fault_init+0xc>)
 80528f2:	6953      	ldr	r3, [r2, #20]
 80528f4:	f043 0310 	orr.w	r3, r3, #16
 80528f8:	6153      	str	r3, [r2, #20]
 80528fa:	4770      	bx	lr
 80528fc:	e000ed00 	.word	0xe000ed00

08052900 <z_arm_exc_exit>:
 8052900:	4b04      	ldr	r3, [pc, #16]	; (8052914 <_EXIT_EXC+0x2>)
 8052902:	6899      	ldr	r1, [r3, #8]
 8052904:	6a18      	ldr	r0, [r3, #32]
 8052906:	4288      	cmp	r0, r1
 8052908:	d003      	beq.n	8052912 <_EXIT_EXC>
 805290a:	4903      	ldr	r1, [pc, #12]	; (8052918 <_EXIT_EXC+0x6>)
 805290c:	f04f 5280 	mov.w	r2, #268435456	; 0x10000000
 8052910:	600a      	str	r2, [r1, #0]

08052912 <_EXIT_EXC>:
 8052912:	4770      	bx	lr
 8052914:	20001838 	.word	0x20001838
 8052918:	e000ed04 	.word	0xe000ed04

0805291c <sys_arch_reboot>:
 805291c:	f3bf 8f4f 	dsb	sy
 8052920:	4905      	ldr	r1, [pc, #20]	; (8052938 <sys_arch_reboot+0x1c>)
 8052922:	4b06      	ldr	r3, [pc, #24]	; (805293c <sys_arch_reboot+0x20>)
 8052924:	68ca      	ldr	r2, [r1, #12]
 8052926:	f402 62e0 	and.w	r2, r2, #1792	; 0x700
 805292a:	4313      	orrs	r3, r2
 805292c:	60cb      	str	r3, [r1, #12]
 805292e:	f3bf 8f4f 	dsb	sy
 8052932:	bf00      	nop
 8052934:	e7fd      	b.n	8052932 <sys_arch_reboot+0x16>
 8052936:	bf00      	nop
 8052938:	e000ed00 	.word	0xe000ed00
 805293c:	05fa0004 	.word	0x05fa0004

08052940 <z_arm_interrupt_init>:
 8052940:	2300      	movs	r3, #0
 8052942:	2120      	movs	r1, #32
 8052944:	4803      	ldr	r0, [pc, #12]	; (8052954 <z_arm_interrupt_init+0x14>)
 8052946:	18c2      	adds	r2, r0, r3
 8052948:	3301      	adds	r3, #1
 805294a:	2b6c      	cmp	r3, #108	; 0x6c
 805294c:	f882 1300 	strb.w	r1, [r2, #768]	; 0x300
 8052950:	d1f9      	bne.n	8052946 <z_arm_interrupt_init+0x6>
 8052952:	4770      	bx	lr
 8052954:	e000e100 	.word	0xe000e100

08052958 <z_impl_k_thread_abort>:
 8052958:	b510      	push	{r4, lr}
 805295a:	4604      	mov	r4, r0
 805295c:	f000 fe84 	bl	8053668 <z_thread_single_abort>
 8052960:	4b11      	ldr	r3, [pc, #68]	; (80529a8 <z_impl_k_thread_abort+0x50>)
 8052962:	689b      	ldr	r3, [r3, #8]
 8052964:	42a3      	cmp	r3, r4
 8052966:	d107      	bne.n	8052978 <z_impl_k_thread_abort+0x20>
 8052968:	f3ef 8305 	mrs	r3, IPSR
 805296c:	b183      	cbz	r3, 8052990 <z_impl_k_thread_abort+0x38>
 805296e:	4a0f      	ldr	r2, [pc, #60]	; (80529ac <z_impl_k_thread_abort+0x54>)
 8052970:	6853      	ldr	r3, [r2, #4]
 8052972:	f043 5380 	orr.w	r3, r3, #268435456	; 0x10000000
 8052976:	6053      	str	r3, [r2, #4]
 8052978:	f04f 0320 	mov.w	r3, #32
 805297c:	f3ef 8011 	mrs	r0, BASEPRI
 8052980:	f383 8811 	msr	BASEPRI, r3
 8052984:	f3bf 8f6f 	isb	sy
 8052988:	e8bd 4010 	ldmia.w	sp!, {r4, lr}
 805298c:	f002 b8bc 	b.w	8054b08 <z_reschedule_irqlock>
 8052990:	f04f 0320 	mov.w	r3, #32
 8052994:	f3ef 8011 	mrs	r0, BASEPRI
 8052998:	f383 8811 	msr	BASEPRI, r3
 805299c:	f3bf 8f6f 	isb	sy
 80529a0:	f7ff fda8 	bl	80524f4 <arch_swap>
 80529a4:	e7e8      	b.n	8052978 <z_impl_k_thread_abort+0x20>
 80529a6:	bf00      	nop
 80529a8:	20001838 	.word	0x20001838
 80529ac:	e000ed00 	.word	0xe000ed00

080529b0 <__stdout_hook_install>:
 80529b0:	4b01      	ldr	r3, [pc, #4]	; (80529b8 <__stdout_hook_install+0x8>)
 80529b2:	6018      	str	r0, [r3, #0]
 80529b4:	4770      	bx	lr
 80529b6:	bf00      	nop
 80529b8:	20000020 	.word	0x20000020

080529bc <pinmux_stm32_init>:
 80529bc:	b508      	push	{r3, lr}
 80529be:	2102      	movs	r1, #2
 80529c0:	4802      	ldr	r0, [pc, #8]	; (80529cc <pinmux_stm32_init+0x10>)
 80529c2:	f7ff fc9b 	bl	80522fc <stm32_setup_pins>
 80529c6:	2000      	movs	r0, #0
 80529c8:	bd08      	pop	{r3, pc}
 80529ca:	bf00      	nop
 80529cc:	080551c4 	.word	0x080551c4

080529d0 <gpio_stm32_pin_interrupt_configure>:
 80529d0:	b5f8      	push	{r3, r4, r5, r6, r7, lr}
 80529d2:	460c      	mov	r4, r1
 80529d4:	4611      	mov	r1, r2
 80529d6:	f5b1 5f00 	cmp.w	r1, #8192	; 0x2000
 80529da:	461f      	mov	r7, r3
 80529dc:	6846      	ldr	r6, [r0, #4]
 80529de:	68c2      	ldr	r2, [r0, #12]
 80529e0:	d11b      	bne.n	8052a1a <gpio_stm32_pin_interrupt_configure+0x4a>
 80529e2:	492b      	ldr	r1, [pc, #172]	; (8052a90 <gpio_stm32_pin_interrupt_configure+0xc0>)
 80529e4:	f3c4 0381 	ubfx	r3, r4, #2, #2
 80529e8:	3318      	adds	r3, #24
 80529ea:	f851 1023 	ldr.w	r1, [r1, r3, lsl #2]
 80529ee:	2307      	movs	r3, #7
 80529f0:	00e2      	lsls	r2, r4, #3
 80529f2:	f002 0218 	and.w	r2, r2, #24
 80529f6:	4093      	lsls	r3, r2
 80529f8:	400b      	ands	r3, r1
 80529fa:	40d3      	lsrs	r3, r2
 80529fc:	68b2      	ldr	r2, [r6, #8]
 80529fe:	429a      	cmp	r2, r3
 8052a00:	d109      	bne.n	8052a16 <gpio_stm32_pin_interrupt_configure+0x46>
 8052a02:	4620      	mov	r0, r4
 8052a04:	f7ff fb1c 	bl	8052040 <stm32_exti_disable>
 8052a08:	4620      	mov	r0, r4
 8052a0a:	f7ff fb6f 	bl	80520ec <stm32_exti_unset_callback>
 8052a0e:	2100      	movs	r1, #0
 8052a10:	4620      	mov	r0, r4
 8052a12:	f7ff fb25 	bl	8052060 <stm32_exti_trigger>
 8052a16:	2500      	movs	r5, #0
 8052a18:	e02d      	b.n	8052a76 <gpio_stm32_pin_interrupt_configure+0xa6>
 8052a1a:	f5b1 4f80 	cmp.w	r1, #16384	; 0x4000
 8052a1e:	d030      	beq.n	8052a82 <gpio_stm32_pin_interrupt_configure+0xb2>
 8052a20:	4620      	mov	r0, r4
 8052a22:	491c      	ldr	r1, [pc, #112]	; (8052a94 <gpio_stm32_pin_interrupt_configure+0xc4>)
 8052a24:	f7ff fb50 	bl	80520c8 <stm32_exti_set_callback>
 8052a28:	4605      	mov	r5, r0
 8052a2a:	bb68      	cbnz	r0, 8052a88 <gpio_stm32_pin_interrupt_configure+0xb8>
 8052a2c:	2007      	movs	r0, #7
 8052a2e:	f004 020c 	and.w	r2, r4, #12
 8052a32:	f102 4280 	add.w	r2, r2, #1073741824	; 0x40000000
 8052a36:	f502 323d 	add.w	r2, r2, #193536	; 0x2f400
 8052a3a:	00e1      	lsls	r1, r4, #3
 8052a3c:	6e13      	ldr	r3, [r2, #96]	; 0x60
 8052a3e:	f001 0118 	and.w	r1, r1, #24
 8052a42:	4088      	lsls	r0, r1
 8052a44:	ea23 0300 	bic.w	r3, r3, r0
 8052a48:	68b0      	ldr	r0, [r6, #8]
 8052a4a:	f5b7 2f80 	cmp.w	r7, #262144	; 0x40000
 8052a4e:	fa00 f101 	lsl.w	r1, r0, r1
 8052a52:	ea41 0103 	orr.w	r1, r1, r3
 8052a56:	6611      	str	r1, [r2, #96]	; 0x60
 8052a58:	d00f      	beq.n	8052a7a <gpio_stm32_pin_interrupt_configure+0xaa>
 8052a5a:	f5b7 2fc0 	cmp.w	r7, #393216	; 0x60000
 8052a5e:	d00e      	beq.n	8052a7e <gpio_stm32_pin_interrupt_configure+0xae>
 8052a60:	f5b7 3f00 	cmp.w	r7, #131072	; 0x20000
 8052a64:	bf14      	ite	ne
 8052a66:	2100      	movne	r1, #0
 8052a68:	2102      	moveq	r1, #2
 8052a6a:	4620      	mov	r0, r4
 8052a6c:	f7ff faf8 	bl	8052060 <stm32_exti_trigger>
 8052a70:	4620      	mov	r0, r4
 8052a72:	f7ff fad5 	bl	8052020 <stm32_exti_enable>
 8052a76:	4628      	mov	r0, r5
 8052a78:	bdf8      	pop	{r3, r4, r5, r6, r7, pc}
 8052a7a:	2101      	movs	r1, #1
 8052a7c:	e7f5      	b.n	8052a6a <gpio_stm32_pin_interrupt_configure+0x9a>
 8052a7e:	2103      	movs	r1, #3
 8052a80:	e7f3      	b.n	8052a6a <gpio_stm32_pin_interrupt_configure+0x9a>
 8052a82:	f06f 0522 	mvn.w	r5, #34	; 0x22
 8052a86:	e7f6      	b.n	8052a76 <gpio_stm32_pin_interrupt_configure+0xa6>
 8052a88:	f06f 050f 	mvn.w	r5, #15
 8052a8c:	e7f3      	b.n	8052a76 <gpio_stm32_pin_interrupt_configure+0xa6>
 8052a8e:	bf00      	nop
 8052a90:	4002f400 	.word	0x4002f400
 8052a94:	0805473d 	.word	0x0805473d

08052a98 <gpio_stm32_init>:
 8052a98:	68c3      	ldr	r3, [r0, #12]
 8052a9a:	b513      	push	{r0, r1, r4, lr}
 8052a9c:	6844      	ldr	r4, [r0, #4]
 8052a9e:	6058      	str	r0, [r3, #4]
 8052aa0:	4816      	ldr	r0, [pc, #88]	; (8052afc <gpio_stm32_init+0x64>)
 8052aa2:	f000 fac1 	bl	8053028 <z_impl_device_get_binding>
 8052aa6:	6883      	ldr	r3, [r0, #8]
 8052aa8:	f104 010c 	add.w	r1, r4, #12
 8052aac:	681b      	ldr	r3, [r3, #0]
 8052aae:	4798      	blx	r3
 8052ab0:	bb00      	cbnz	r0, 8052af4 <gpio_stm32_init+0x5c>
 8052ab2:	68a3      	ldr	r3, [r4, #8]
 8052ab4:	2b06      	cmp	r3, #6
 8052ab6:	d109      	bne.n	8052acc <gpio_stm32_init+0x34>
 8052ab8:	4b11      	ldr	r3, [pc, #68]	; (8052b00 <gpio_stm32_init+0x68>)
 8052aba:	6d9a      	ldr	r2, [r3, #88]	; 0x58
 8052abc:	f012 5f80 	tst.w	r2, #268435456	; 0x10000000
 8052ac0:	4a10      	ldr	r2, [pc, #64]	; (8052b04 <gpio_stm32_init+0x6c>)
 8052ac2:	d005      	beq.n	8052ad0 <gpio_stm32_init+0x38>
 8052ac4:	6853      	ldr	r3, [r2, #4]
 8052ac6:	f443 7300 	orr.w	r3, r3, #512	; 0x200
 8052aca:	6053      	str	r3, [r2, #4]
 8052acc:	b002      	add	sp, #8
 8052ace:	bd10      	pop	{r4, pc}
 8052ad0:	6d99      	ldr	r1, [r3, #88]	; 0x58
 8052ad2:	f041 5180 	orr.w	r1, r1, #268435456	; 0x10000000
 8052ad6:	6599      	str	r1, [r3, #88]	; 0x58
 8052ad8:	6d99      	ldr	r1, [r3, #88]	; 0x58
 8052ada:	f001 5180 	and.w	r1, r1, #268435456	; 0x10000000
 8052ade:	9101      	str	r1, [sp, #4]
 8052ae0:	9901      	ldr	r1, [sp, #4]
 8052ae2:	6851      	ldr	r1, [r2, #4]
 8052ae4:	f441 7100 	orr.w	r1, r1, #512	; 0x200
 8052ae8:	6051      	str	r1, [r2, #4]
 8052aea:	6d9a      	ldr	r2, [r3, #88]	; 0x58
 8052aec:	f022 5280 	bic.w	r2, r2, #268435456	; 0x10000000
 8052af0:	659a      	str	r2, [r3, #88]	; 0x58
 8052af2:	e7eb      	b.n	8052acc <gpio_stm32_init+0x34>
 8052af4:	f06f 0004 	mvn.w	r0, #4
 8052af8:	e7e8      	b.n	8052acc <gpio_stm32_init+0x34>
 8052afa:	bf00      	nop
 8052afc:	0805553e 	.word	0x0805553e
 8052b00:	40021000 	.word	0x40021000
 8052b04:	40007000 	.word	0x40007000

08052b08 <uart_stm32_set_baudrate>:
 8052b08:	68c3      	ldr	r3, [r0, #12]
 8052b0a:	b573      	push	{r0, r1, r4, r5, r6, lr}
 8052b0c:	460c      	mov	r4, r1
 8052b0e:	6841      	ldr	r1, [r0, #4]
 8052b10:	6858      	ldr	r0, [r3, #4]
 8052b12:	f851 5b08 	ldr.w	r5, [r1], #8
 8052b16:	6883      	ldr	r3, [r0, #8]
 8052b18:	aa01      	add	r2, sp, #4
 8052b1a:	68db      	ldr	r3, [r3, #12]
 8052b1c:	4798      	blx	r3
 8052b1e:	2800      	cmp	r0, #0
 8052b20:	db11      	blt.n	8052b46 <uart_stm32_set_baudrate+0x3e>
 8052b22:	4b0c      	ldr	r3, [pc, #48]	; (8052b54 <uart_stm32_set_baudrate+0x4c>)
 8052b24:	9e01      	ldr	r6, [sp, #4]
 8052b26:	429d      	cmp	r5, r3
 8052b28:	ea4f 0054 	mov.w	r0, r4, lsr #1
 8052b2c:	d10d      	bne.n	8052b4a <uart_stm32_set_baudrate+0x42>
 8052b2e:	4622      	mov	r2, r4
 8052b30:	2100      	movs	r1, #0
 8052b32:	f44f 7480 	mov.w	r4, #256	; 0x100
 8052b36:	2300      	movs	r3, #0
 8052b38:	fbe4 0106 	umlal	r0, r1, r4, r6
 8052b3c:	f7fe fd58 	bl	80515f0 <__aeabi_uldivmod>
 8052b40:	f3c0 0013 	ubfx	r0, r0, #0, #20
 8052b44:	60e8      	str	r0, [r5, #12]
 8052b46:	b002      	add	sp, #8
 8052b48:	bd70      	pop	{r4, r5, r6, pc}
 8052b4a:	4430      	add	r0, r6
 8052b4c:	fbb0 f0f4 	udiv	r0, r0, r4
 8052b50:	b280      	uxth	r0, r0
 8052b52:	e7f7      	b.n	8052b44 <uart_stm32_set_baudrate+0x3c>
 8052b54:	40008000 	.word	0x40008000

08052b58 <uart_stm32_configure>:
 8052b58:	e92d 43f8 	stmdb	sp!, {r3, r4, r5, r6, r7, r8, r9, lr}
 8052b5c:	790a      	ldrb	r2, [r1, #4]
 8052b5e:	6843      	ldr	r3, [r0, #4]
 8052b60:	2a01      	cmp	r2, #1
 8052b62:	460d      	mov	r5, r1
 8052b64:	68c6      	ldr	r6, [r0, #12]
 8052b66:	681c      	ldr	r4, [r3, #0]
 8052b68:	f000 8084 	beq.w	8052c74 <uart_stm32_configure+0x11c>
 8052b6c:	2a02      	cmp	r2, #2
 8052b6e:	bf0c      	ite	eq
 8052b70:	f44f 6180 	moveq.w	r1, #1024	; 0x400
 8052b74:	2100      	movne	r1, #0
 8052b76:	f895 9005 	ldrb.w	r9, [r5, #5]
 8052b7a:	f895 8006 	ldrb.w	r8, [r5, #6]
 8052b7e:	f1b9 0f02 	cmp.w	r9, #2
 8052b82:	bf96      	itet	ls
 8052b84:	4b40      	ldrls	r3, [pc, #256]	; (8052c88 <uart_stm32_configure+0x130>)
 8052b86:	f44f 5e00 	movhi.w	lr, #8192	; 0x2000
 8052b8a:	f833 e019 	ldrhls.w	lr, [r3, r9, lsl #1]
 8052b8e:	f1b8 0f02 	cmp.w	r8, #2
 8052b92:	d072      	beq.n	8052c7a <uart_stm32_configure+0x122>
 8052b94:	f1b8 0f04 	cmp.w	r8, #4
 8052b98:	bf0c      	ite	eq
 8052b9a:	f44f 5380 	moveq.w	r3, #4096	; 0x1000
 8052b9e:	2300      	movne	r3, #0
 8052ba0:	79ef      	ldrb	r7, [r5, #7]
 8052ba2:	3a03      	subs	r2, #3
 8052ba4:	2f01      	cmp	r7, #1
 8052ba6:	bf14      	ite	ne
 8052ba8:	f04f 0c00 	movne.w	ip, #0
 8052bac:	f44f 7c40 	moveq.w	ip, #768	; 0x300
 8052bb0:	2a01      	cmp	r2, #1
 8052bb2:	d965      	bls.n	8052c80 <uart_stm32_configure+0x128>
 8052bb4:	4a35      	ldr	r2, [pc, #212]	; (8052c8c <uart_stm32_configure+0x134>)
 8052bb6:	4294      	cmp	r4, r2
 8052bb8:	d102      	bne.n	8052bc0 <uart_stm32_configure+0x68>
 8052bba:	f019 0ffd 	tst.w	r9, #253	; 0xfd
 8052bbe:	d05f      	beq.n	8052c80 <uart_stm32_configure+0x128>
 8052bc0:	f1b8 0f01 	cmp.w	r8, #1
 8052bc4:	d95c      	bls.n	8052c80 <uart_stm32_configure+0x128>
 8052bc6:	b1c7      	cbz	r7, 8052bfa <uart_stm32_configure+0xa2>
 8052bc8:	4a31      	ldr	r2, [pc, #196]	; (8052c90 <uart_stm32_configure+0x138>)
 8052bca:	4294      	cmp	r4, r2
 8052bcc:	d013      	beq.n	8052bf6 <uart_stm32_configure+0x9e>
 8052bce:	f5a2 4274 	sub.w	r2, r2, #62464	; 0xf400
 8052bd2:	4294      	cmp	r4, r2
 8052bd4:	d00f      	beq.n	8052bf6 <uart_stm32_configure+0x9e>
 8052bd6:	f502 6280 	add.w	r2, r2, #1024	; 0x400
 8052bda:	4294      	cmp	r4, r2
 8052bdc:	d00b      	beq.n	8052bf6 <uart_stm32_configure+0x9e>
 8052bde:	f502 6280 	add.w	r2, r2, #1024	; 0x400
 8052be2:	4294      	cmp	r4, r2
 8052be4:	d007      	beq.n	8052bf6 <uart_stm32_configure+0x9e>
 8052be6:	f502 6280 	add.w	r2, r2, #1024	; 0x400
 8052bea:	4294      	cmp	r4, r2
 8052bec:	d003      	beq.n	8052bf6 <uart_stm32_configure+0x9e>
 8052bee:	f502 5240 	add.w	r2, r2, #12288	; 0x3000
 8052bf2:	4294      	cmp	r4, r2
 8052bf4:	d144      	bne.n	8052c80 <uart_stm32_configure+0x128>
 8052bf6:	2f01      	cmp	r7, #1
 8052bf8:	d142      	bne.n	8052c80 <uart_stm32_configure+0x128>
 8052bfa:	6822      	ldr	r2, [r4, #0]
 8052bfc:	f022 0201 	bic.w	r2, r2, #1
 8052c00:	6022      	str	r2, [r4, #0]
 8052c02:	6822      	ldr	r2, [r4, #0]
 8052c04:	f402 62c0 	and.w	r2, r2, #1536	; 0x600
 8052c08:	428a      	cmp	r2, r1
 8052c0a:	bf1f      	itttt	ne
 8052c0c:	6827      	ldrne	r7, [r4, #0]
 8052c0e:	f427 67c0 	bicne.w	r7, r7, #1536	; 0x600
 8052c12:	430f      	orrne	r7, r1
 8052c14:	6027      	strne	r7, [r4, #0]
 8052c16:	6862      	ldr	r2, [r4, #4]
 8052c18:	f402 5240 	and.w	r2, r2, #12288	; 0x3000
 8052c1c:	4596      	cmp	lr, r2
 8052c1e:	bf1f      	itttt	ne
 8052c20:	6861      	ldrne	r1, [r4, #4]
 8052c22:	f421 5140 	bicne.w	r1, r1, #12288	; 0x3000
 8052c26:	ea41 010e 	orrne.w	r1, r1, lr
 8052c2a:	6061      	strne	r1, [r4, #4]
 8052c2c:	6822      	ldr	r2, [r4, #0]
 8052c2e:	6829      	ldr	r1, [r5, #0]
 8052c30:	f002 2210 	and.w	r2, r2, #268439552	; 0x10001000
 8052c34:	429a      	cmp	r2, r3
 8052c36:	bf1f      	itttt	ne
 8052c38:	6822      	ldrne	r2, [r4, #0]
 8052c3a:	f022 2210 	bicne.w	r2, r2, #268439552	; 0x10001000
 8052c3e:	431a      	orrne	r2, r3
 8052c40:	6022      	strne	r2, [r4, #0]
 8052c42:	68a3      	ldr	r3, [r4, #8]
 8052c44:	f403 7340 	and.w	r3, r3, #768	; 0x300
 8052c48:	459c      	cmp	ip, r3
 8052c4a:	bf1f      	itttt	ne
 8052c4c:	68a3      	ldrne	r3, [r4, #8]
 8052c4e:	f423 7340 	bicne.w	r3, r3, #768	; 0x300
 8052c52:	ea43 030c 	orrne.w	r3, r3, ip
 8052c56:	60a3      	strne	r3, [r4, #8]
 8052c58:	6833      	ldr	r3, [r6, #0]
 8052c5a:	4299      	cmp	r1, r3
 8052c5c:	d003      	beq.n	8052c66 <uart_stm32_configure+0x10e>
 8052c5e:	f7ff ff53 	bl	8052b08 <uart_stm32_set_baudrate>
 8052c62:	682b      	ldr	r3, [r5, #0]
 8052c64:	6033      	str	r3, [r6, #0]
 8052c66:	2000      	movs	r0, #0
 8052c68:	6823      	ldr	r3, [r4, #0]
 8052c6a:	f043 0301 	orr.w	r3, r3, #1
 8052c6e:	6023      	str	r3, [r4, #0]
 8052c70:	e8bd 83f8 	ldmia.w	sp!, {r3, r4, r5, r6, r7, r8, r9, pc}
 8052c74:	f44f 61c0 	mov.w	r1, #1536	; 0x600
 8052c78:	e77d      	b.n	8052b76 <uart_stm32_configure+0x1e>
 8052c7a:	f04f 5380 	mov.w	r3, #268435456	; 0x10000000
 8052c7e:	e78f      	b.n	8052ba0 <uart_stm32_configure+0x48>
 8052c80:	f06f 0022 	mvn.w	r0, #34	; 0x22
 8052c84:	e7f4      	b.n	8052c70 <uart_stm32_configure+0x118>
 8052c86:	bf00      	nop
 8052c88:	0805531c 	.word	0x0805531c
 8052c8c:	40008000 	.word	0x40008000
 8052c90:	40013800 	.word	0x40013800

08052c94 <uart_stm32_init>:
 8052c94:	e92d 41f0 	stmdb	sp!, {r4, r5, r6, r7, r8, lr}
 8052c98:	f8d0 8004 	ldr.w	r8, [r0, #4]
 8052c9c:	4606      	mov	r6, r0
 8052c9e:	4645      	mov	r5, r8
 8052ca0:	68c7      	ldr	r7, [r0, #12]
 8052ca2:	f855 4b08 	ldr.w	r4, [r5], #8
 8052ca6:	4826      	ldr	r0, [pc, #152]	; (8052d40 <uart_stm32_init+0xac>)
 8052ca8:	f000 f9be 	bl	8053028 <z_impl_device_get_binding>
 8052cac:	6883      	ldr	r3, [r0, #8]
 8052cae:	4629      	mov	r1, r5
 8052cb0:	681b      	ldr	r3, [r3, #0]
 8052cb2:	6078      	str	r0, [r7, #4]
 8052cb4:	4798      	blx	r3
 8052cb6:	4605      	mov	r5, r0
 8052cb8:	2800      	cmp	r0, #0
 8052cba:	d13e      	bne.n	8052d3a <uart_stm32_init+0xa6>
 8052cbc:	6823      	ldr	r3, [r4, #0]
 8052cbe:	f023 0301 	bic.w	r3, r3, #1
 8052cc2:	6023      	str	r3, [r4, #0]
 8052cc4:	6823      	ldr	r3, [r4, #0]
 8052cc6:	f043 030c 	orr.w	r3, r3, #12
 8052cca:	6023      	str	r3, [r4, #0]
 8052ccc:	f8d8 3014 	ldr.w	r3, [r8, #20]
 8052cd0:	2b02      	cmp	r3, #2
 8052cd2:	d02d      	beq.n	8052d30 <uart_stm32_init+0x9c>
 8052cd4:	2b01      	cmp	r3, #1
 8052cd6:	bf15      	itete	ne
 8052cd8:	4602      	movne	r2, r0
 8052cda:	f44f 5280 	moveq.w	r2, #4096	; 0x1000
 8052cde:	4601      	movne	r1, r0
 8052ce0:	f44f 61c0 	moveq.w	r1, #1536	; 0x600
 8052ce4:	6823      	ldr	r3, [r4, #0]
 8052ce6:	430a      	orrs	r2, r1
 8052ce8:	f023 5380 	bic.w	r3, r3, #268435456	; 0x10000000
 8052cec:	f423 53b0 	bic.w	r3, r3, #5632	; 0x1600
 8052cf0:	4313      	orrs	r3, r2
 8052cf2:	6023      	str	r3, [r4, #0]
 8052cf4:	6863      	ldr	r3, [r4, #4]
 8052cf6:	f423 5340 	bic.w	r3, r3, #12288	; 0x3000
 8052cfa:	6063      	str	r3, [r4, #4]
 8052cfc:	f898 3010 	ldrb.w	r3, [r8, #16]
 8052d00:	b12b      	cbz	r3, 8052d0e <uart_stm32_init+0x7a>
 8052d02:	6873      	ldr	r3, [r6, #4]
 8052d04:	681a      	ldr	r2, [r3, #0]
 8052d06:	6893      	ldr	r3, [r2, #8]
 8052d08:	f443 7340 	orr.w	r3, r3, #768	; 0x300
 8052d0c:	6093      	str	r3, [r2, #8]
 8052d0e:	4630      	mov	r0, r6
 8052d10:	6839      	ldr	r1, [r7, #0]
 8052d12:	f7ff fef9 	bl	8052b08 <uart_stm32_set_baudrate>
 8052d16:	6823      	ldr	r3, [r4, #0]
 8052d18:	f043 0301 	orr.w	r3, r3, #1
 8052d1c:	6023      	str	r3, [r4, #0]
 8052d1e:	69e3      	ldr	r3, [r4, #28]
 8052d20:	029a      	lsls	r2, r3, #10
 8052d22:	d5fc      	bpl.n	8052d1e <uart_stm32_init+0x8a>
 8052d24:	69e3      	ldr	r3, [r4, #28]
 8052d26:	025b      	lsls	r3, r3, #9
 8052d28:	d5fc      	bpl.n	8052d24 <uart_stm32_init+0x90>
 8052d2a:	4628      	mov	r0, r5
 8052d2c:	e8bd 81f0 	ldmia.w	sp!, {r4, r5, r6, r7, r8, pc}
 8052d30:	f44f 5280 	mov.w	r2, #4096	; 0x1000
 8052d34:	f44f 6180 	mov.w	r1, #1024	; 0x400
 8052d38:	e7d4      	b.n	8052ce4 <uart_stm32_init+0x50>
 8052d3a:	f06f 0504 	mvn.w	r5, #4
 8052d3e:	e7f4      	b.n	8052d2a <uart_stm32_init+0x96>
 8052d40:	0805553e 	.word	0x0805553e

08052d44 <LL_RCC_SetAHBPrescaler>:
 8052d44:	4a03      	ldr	r2, [pc, #12]	; (8052d54 <LL_RCC_SetAHBPrescaler+0x10>)
 8052d46:	6893      	ldr	r3, [r2, #8]
 8052d48:	f023 03f0 	bic.w	r3, r3, #240	; 0xf0
 8052d4c:	4303      	orrs	r3, r0
 8052d4e:	6093      	str	r3, [r2, #8]
 8052d50:	4770      	bx	lr
 8052d52:	bf00      	nop
 8052d54:	40021000 	.word	0x40021000

08052d58 <UTILS_PLL_IsBusy>:
 8052d58:	4b08      	ldr	r3, [pc, #32]	; (8052d7c <UTILS_PLL_IsBusy+0x24>)
 8052d5a:	6819      	ldr	r1, [r3, #0]
 8052d5c:	681a      	ldr	r2, [r3, #0]
 8052d5e:	f001 7100 	and.w	r1, r1, #33554432	; 0x2000000
 8052d62:	681b      	ldr	r3, [r3, #0]
 8052d64:	f002 6200 	and.w	r2, r2, #134217728	; 0x8000000
 8052d68:	430a      	orrs	r2, r1
 8052d6a:	bf14      	ite	ne
 8052d6c:	2001      	movne	r0, #1
 8052d6e:	2000      	moveq	r0, #0
 8052d70:	f013 5f00 	tst.w	r3, #536870912	; 0x20000000
 8052d74:	bf18      	it	ne
 8052d76:	2001      	movne	r0, #1
 8052d78:	4770      	bx	lr
 8052d7a:	bf00      	nop
 8052d7c:	40021000 	.word	0x40021000

08052d80 <LL_SetFlashLatency>:
 8052d80:	4b23      	ldr	r3, [pc, #140]	; (8052e10 <LL_SetFlashLatency+0x90>)
 8052d82:	1e42      	subs	r2, r0, #1
 8052d84:	429a      	cmp	r2, r3
 8052d86:	d830      	bhi.n	8052dea <LL_SetFlashLatency+0x6a>
 8052d88:	4b22      	ldr	r3, [pc, #136]	; (8052e14 <LL_SetFlashLatency+0x94>)
 8052d8a:	681a      	ldr	r2, [r3, #0]
 8052d8c:	f412 6fc0 	tst.w	r2, #1536	; 0x600
 8052d90:	d122      	bne.n	8052dd8 <LL_SetFlashLatency+0x58>
 8052d92:	4b21      	ldr	r3, [pc, #132]	; (8052e18 <LL_SetFlashLatency+0x98>)
 8052d94:	4298      	cmp	r0, r3
 8052d96:	d832      	bhi.n	8052dfe <LL_SetFlashLatency+0x7e>
 8052d98:	4b20      	ldr	r3, [pc, #128]	; (8052e1c <LL_SetFlashLatency+0x9c>)
 8052d9a:	4298      	cmp	r0, r3
 8052d9c:	d831      	bhi.n	8052e02 <LL_SetFlashLatency+0x82>
 8052d9e:	4b20      	ldr	r3, [pc, #128]	; (8052e20 <LL_SetFlashLatency+0xa0>)
 8052da0:	4298      	cmp	r0, r3
 8052da2:	d830      	bhi.n	8052e06 <LL_SetFlashLatency+0x86>
 8052da4:	4b1f      	ldr	r3, [pc, #124]	; (8052e24 <LL_SetFlashLatency+0xa4>)
 8052da6:	4298      	cmp	r0, r3
 8052da8:	d82f      	bhi.n	8052e0a <LL_SetFlashLatency+0x8a>
 8052daa:	4b1f      	ldr	r3, [pc, #124]	; (8052e28 <LL_SetFlashLatency+0xa8>)
 8052dac:	4298      	cmp	r0, r3
 8052dae:	bf94      	ite	ls
 8052db0:	2000      	movls	r0, #0
 8052db2:	2001      	movhi	r0, #1
 8052db4:	4a1d      	ldr	r2, [pc, #116]	; (8052e2c <LL_SetFlashLatency+0xac>)
 8052db6:	6813      	ldr	r3, [r2, #0]
 8052db8:	f023 030f 	bic.w	r3, r3, #15
 8052dbc:	4303      	orrs	r3, r0
 8052dbe:	6013      	str	r3, [r2, #0]
 8052dc0:	6813      	ldr	r3, [r2, #0]
 8052dc2:	f003 030f 	and.w	r3, r3, #15
 8052dc6:	4298      	cmp	r0, r3
 8052dc8:	d004      	beq.n	8052dd4 <LL_SetFlashLatency+0x54>
 8052dca:	6813      	ldr	r3, [r2, #0]
 8052dcc:	f003 030f 	and.w	r3, r3, #15
 8052dd0:	4298      	cmp	r0, r3
 8052dd2:	d10a      	bne.n	8052dea <LL_SetFlashLatency+0x6a>
 8052dd4:	2000      	movs	r0, #0
 8052dd6:	4770      	bx	lr
 8052dd8:	681b      	ldr	r3, [r3, #0]
 8052dda:	f403 63c0 	and.w	r3, r3, #1536	; 0x600
 8052dde:	f5b3 7f00 	cmp.w	r3, #512	; 0x200
 8052de2:	d104      	bne.n	8052dee <LL_SetFlashLatency+0x6e>
 8052de4:	4b0d      	ldr	r3, [pc, #52]	; (8052e1c <LL_SetFlashLatency+0x9c>)
 8052de6:	4298      	cmp	r0, r3
 8052de8:	d9d9      	bls.n	8052d9e <LL_SetFlashLatency+0x1e>
 8052dea:	2001      	movs	r0, #1
 8052dec:	4770      	bx	lr
 8052dee:	4b10      	ldr	r3, [pc, #64]	; (8052e30 <LL_SetFlashLatency+0xb0>)
 8052df0:	4298      	cmp	r0, r3
 8052df2:	d8fa      	bhi.n	8052dea <LL_SetFlashLatency+0x6a>
 8052df4:	4b0f      	ldr	r3, [pc, #60]	; (8052e34 <LL_SetFlashLatency+0xb4>)
 8052df6:	4298      	cmp	r0, r3
 8052df8:	d807      	bhi.n	8052e0a <LL_SetFlashLatency+0x8a>
 8052dfa:	4b0f      	ldr	r3, [pc, #60]	; (8052e38 <LL_SetFlashLatency+0xb8>)
 8052dfc:	e7d6      	b.n	8052dac <LL_SetFlashLatency+0x2c>
 8052dfe:	2005      	movs	r0, #5
 8052e00:	e7d8      	b.n	8052db4 <LL_SetFlashLatency+0x34>
 8052e02:	2004      	movs	r0, #4
 8052e04:	e7d6      	b.n	8052db4 <LL_SetFlashLatency+0x34>
 8052e06:	2003      	movs	r0, #3
 8052e08:	e7d4      	b.n	8052db4 <LL_SetFlashLatency+0x34>
 8052e0a:	2002      	movs	r0, #2
 8052e0c:	e7d2      	b.n	8052db4 <LL_SetFlashLatency+0x34>
 8052e0e:	bf00      	nop
 8052e10:	068e777f 	.word	0x068e777f
 8052e14:	40007000 	.word	0x40007000
 8052e18:	05f5e100 	.word	0x05f5e100
 8052e1c:	04c4b400 	.word	0x04c4b400
 8052e20:	03938700 	.word	0x03938700
 8052e24:	02625a00 	.word	0x02625a00
 8052e28:	01312d00 	.word	0x01312d00
 8052e2c:	40022000 	.word	0x40022000
 8052e30:	018cba80 	.word	0x018cba80
 8052e34:	00f42400 	.word	0x00f42400
 8052e38:	007a1200 	.word	0x007a1200

08052e3c <UTILS_EnablePLLAndSwitchSystem>:
 8052e3c:	680b      	ldr	r3, [r1, #0]
 8052e3e:	4a1f      	ldr	r2, [pc, #124]	; (8052ebc <UTILS_EnablePLLAndSwitchSystem+0x80>)
 8052e40:	f3c3 1303 	ubfx	r3, r3, #4, #4
 8052e44:	b570      	push	{r4, r5, r6, lr}
 8052e46:	5cd3      	ldrb	r3, [r2, r3]
 8052e48:	4e1d      	ldr	r6, [pc, #116]	; (8052ec0 <UTILS_EnablePLLAndSwitchSystem+0x84>)
 8052e4a:	fa20 f503 	lsr.w	r5, r0, r3
 8052e4e:	6833      	ldr	r3, [r6, #0]
 8052e50:	42ab      	cmp	r3, r5
 8052e52:	d325      	bcc.n	8052ea0 <UTILS_EnablePLLAndSwitchSystem+0x64>
 8052e54:	4c1b      	ldr	r4, [pc, #108]	; (8052ec4 <UTILS_EnablePLLAndSwitchSystem+0x88>)
 8052e56:	6823      	ldr	r3, [r4, #0]
 8052e58:	f043 7380 	orr.w	r3, r3, #16777216	; 0x1000000
 8052e5c:	6023      	str	r3, [r4, #0]
 8052e5e:	68e3      	ldr	r3, [r4, #12]
 8052e60:	f043 7380 	orr.w	r3, r3, #16777216	; 0x1000000
 8052e64:	60e3      	str	r3, [r4, #12]
 8052e66:	6823      	ldr	r3, [r4, #0]
 8052e68:	019b      	lsls	r3, r3, #6
 8052e6a:	d5fc      	bpl.n	8052e66 <UTILS_EnablePLLAndSwitchSystem+0x2a>
 8052e6c:	6808      	ldr	r0, [r1, #0]
 8052e6e:	f7ff ff69 	bl	8052d44 <LL_RCC_SetAHBPrescaler>
 8052e72:	68a3      	ldr	r3, [r4, #8]
 8052e74:	f043 0303 	orr.w	r3, r3, #3
 8052e78:	60a3      	str	r3, [r4, #8]
 8052e7a:	68a3      	ldr	r3, [r4, #8]
 8052e7c:	f003 030c 	and.w	r3, r3, #12
 8052e80:	2b0c      	cmp	r3, #12
 8052e82:	d1fa      	bne.n	8052e7a <UTILS_EnablePLLAndSwitchSystem+0x3e>
 8052e84:	68a3      	ldr	r3, [r4, #8]
 8052e86:	684a      	ldr	r2, [r1, #4]
 8052e88:	f423 63e0 	bic.w	r3, r3, #1792	; 0x700
 8052e8c:	4313      	orrs	r3, r2
 8052e8e:	60a3      	str	r3, [r4, #8]
 8052e90:	68a3      	ldr	r3, [r4, #8]
 8052e92:	688a      	ldr	r2, [r1, #8]
 8052e94:	f423 5360 	bic.w	r3, r3, #14336	; 0x3800
 8052e98:	4313      	orrs	r3, r2
 8052e9a:	2000      	movs	r0, #0
 8052e9c:	60a3      	str	r3, [r4, #8]
 8052e9e:	e004      	b.n	8052eaa <UTILS_EnablePLLAndSwitchSystem+0x6e>
 8052ea0:	4628      	mov	r0, r5
 8052ea2:	f7ff ff6d 	bl	8052d80 <LL_SetFlashLatency>
 8052ea6:	2800      	cmp	r0, #0
 8052ea8:	d0d4      	beq.n	8052e54 <UTILS_EnablePLLAndSwitchSystem+0x18>
 8052eaa:	6833      	ldr	r3, [r6, #0]
 8052eac:	42ab      	cmp	r3, r5
 8052eae:	d902      	bls.n	8052eb6 <UTILS_EnablePLLAndSwitchSystem+0x7a>
 8052eb0:	4628      	mov	r0, r5
 8052eb2:	f7ff ff65 	bl	8052d80 <LL_SetFlashLatency>
 8052eb6:	b900      	cbnz	r0, 8052eba <UTILS_EnablePLLAndSwitchSystem+0x7e>
 8052eb8:	6035      	str	r5, [r6, #0]
 8052eba:	bd70      	pop	{r4, r5, r6, pc}
 8052ebc:	0805559d 	.word	0x0805559d
 8052ec0:	2000002c 	.word	0x2000002c
 8052ec4:	40021000 	.word	0x40021000

08052ec8 <LL_PLL_ConfigSystemClock_MSI>:
 8052ec8:	b5f8      	push	{r3, r4, r5, r6, r7, lr}
 8052eca:	4604      	mov	r4, r0
 8052ecc:	460d      	mov	r5, r1
 8052ece:	f7ff ff43 	bl	8052d58 <UTILS_PLL_IsBusy>
 8052ed2:	b980      	cbnz	r0, 8052ef6 <LL_PLL_ConfigSystemClock_MSI+0x2e>
 8052ed4:	4b30      	ldr	r3, [pc, #192]	; (8052f98 <LL_PLL_ConfigSystemClock_MSI+0xd0>)
 8052ed6:	681a      	ldr	r2, [r3, #0]
 8052ed8:	f012 0f08 	tst.w	r2, #8
 8052edc:	461a      	mov	r2, r3
 8052ede:	d04f      	beq.n	8052f80 <LL_PLL_ConfigSystemClock_MSI+0xb8>
 8052ee0:	6819      	ldr	r1, [r3, #0]
 8052ee2:	f001 03f0 	and.w	r3, r1, #240	; 0xf0
 8052ee6:	2b30      	cmp	r3, #48	; 0x30
 8052ee8:	d005      	beq.n	8052ef6 <LL_PLL_ConfigSystemClock_MSI+0x2e>
 8052eea:	d806      	bhi.n	8052efa <LL_PLL_ConfigSystemClock_MSI+0x32>
 8052eec:	2b20      	cmp	r3, #32
 8052eee:	d002      	beq.n	8052ef6 <LL_PLL_ConfigSystemClock_MSI+0x2e>
 8052ef0:	f011 0fe0 	tst.w	r1, #224	; 0xe0
 8052ef4:	d105      	bne.n	8052f02 <LL_PLL_ConfigSystemClock_MSI+0x3a>
 8052ef6:	2401      	movs	r4, #1
 8052ef8:	e040      	b.n	8052f7c <LL_PLL_ConfigSystemClock_MSI+0xb4>
 8052efa:	f001 01e0 	and.w	r1, r1, #224	; 0xe0
 8052efe:	2940      	cmp	r1, #64	; 0x40
 8052f00:	d0f9      	beq.n	8052ef6 <LL_PLL_ConfigSystemClock_MSI+0x2e>
 8052f02:	6811      	ldr	r1, [r2, #0]
 8052f04:	f011 0f08 	tst.w	r1, #8
 8052f08:	4924      	ldr	r1, [pc, #144]	; (8052f9c <LL_PLL_ConfigSystemClock_MSI+0xd4>)
 8052f0a:	bf0c      	ite	eq
 8052f0c:	0a1b      	lsreq	r3, r3, #8
 8052f0e:	f3c3 1303 	ubfxne	r3, r3, #4, #4
 8052f12:	f851 0023 	ldr.w	r0, [r1, r3, lsl #2]
 8052f16:	4621      	mov	r1, r4
 8052f18:	f001 fda5 	bl	8054a66 <UTILS_GetPLLOutputFrequency>
 8052f1c:	6813      	ldr	r3, [r2, #0]
 8052f1e:	4606      	mov	r6, r0
 8052f20:	0799      	lsls	r1, r3, #30
 8052f22:	d406      	bmi.n	8052f32 <LL_PLL_ConfigSystemClock_MSI+0x6a>
 8052f24:	6813      	ldr	r3, [r2, #0]
 8052f26:	f043 0301 	orr.w	r3, r3, #1
 8052f2a:	6013      	str	r3, [r2, #0]
 8052f2c:	6813      	ldr	r3, [r2, #0]
 8052f2e:	079b      	lsls	r3, r3, #30
 8052f30:	d5fc      	bpl.n	8052f2c <LL_PLL_ConfigSystemClock_MSI+0x64>
 8052f32:	68d0      	ldr	r0, [r2, #12]
 8052f34:	4b1a      	ldr	r3, [pc, #104]	; (8052fa0 <LL_PLL_ConfigSystemClock_MSI+0xd8>)
 8052f36:	6861      	ldr	r1, [r4, #4]
 8052f38:	4003      	ands	r3, r0
 8052f3a:	ea43 2301 	orr.w	r3, r3, r1, lsl #8
 8052f3e:	6821      	ldr	r1, [r4, #0]
 8052f40:	430b      	orrs	r3, r1
 8052f42:	68a1      	ldr	r1, [r4, #8]
 8052f44:	430b      	orrs	r3, r1
 8052f46:	f043 0301 	orr.w	r3, r3, #1
 8052f4a:	60d3      	str	r3, [r2, #12]
 8052f4c:	4b15      	ldr	r3, [pc, #84]	; (8052fa4 <LL_PLL_ConfigSystemClock_MSI+0xdc>)
 8052f4e:	429e      	cmp	r6, r3
 8052f50:	d91f      	bls.n	8052f92 <LL_PLL_ConfigSystemClock_MSI+0xca>
 8052f52:	682b      	ldr	r3, [r5, #0]
 8052f54:	b9eb      	cbnz	r3, 8052f92 <LL_PLL_ConfigSystemClock_MSI+0xca>
 8052f56:	2780      	movs	r7, #128	; 0x80
 8052f58:	602f      	str	r7, [r5, #0]
 8052f5a:	4629      	mov	r1, r5
 8052f5c:	4630      	mov	r0, r6
 8052f5e:	f7ff ff6d 	bl	8052e3c <UTILS_EnablePLLAndSwitchSystem>
 8052f62:	4604      	mov	r4, r0
 8052f64:	b950      	cbnz	r0, 8052f7c <LL_PLL_ConfigSystemClock_MSI+0xb4>
 8052f66:	b14f      	cbz	r7, 8052f7c <LL_PLL_ConfigSystemClock_MSI+0xb4>
 8052f68:	4630      	mov	r0, r6
 8052f6a:	f7ff ff09 	bl	8052d80 <LL_SetFlashLatency>
 8052f6e:	4604      	mov	r4, r0
 8052f70:	b920      	cbnz	r0, 8052f7c <LL_PLL_ConfigSystemClock_MSI+0xb4>
 8052f72:	6028      	str	r0, [r5, #0]
 8052f74:	f7ff fee6 	bl	8052d44 <LL_RCC_SetAHBPrescaler>
 8052f78:	4b0b      	ldr	r3, [pc, #44]	; (8052fa8 <LL_PLL_ConfigSystemClock_MSI+0xe0>)
 8052f7a:	601e      	str	r6, [r3, #0]
 8052f7c:	4620      	mov	r0, r4
 8052f7e:	bdf8      	pop	{r3, r4, r5, r6, r7, pc}
 8052f80:	f8d3 1094 	ldr.w	r1, [r3, #148]	; 0x94
 8052f84:	f401 6370 	and.w	r3, r1, #3840	; 0xf00
 8052f88:	f401 6160 	and.w	r1, r1, #3584	; 0xe00
 8052f8c:	f5b1 6f80 	cmp.w	r1, #1024	; 0x400
 8052f90:	e7b6      	b.n	8052f00 <LL_PLL_ConfigSystemClock_MSI+0x38>
 8052f92:	2700      	movs	r7, #0
 8052f94:	e7e1      	b.n	8052f5a <LL_PLL_ConfigSystemClock_MSI+0x92>
 8052f96:	bf00      	nop
 8052f98:	40021000 	.word	0x40021000
 8052f9c:	080552c4 	.word	0x080552c4
 8052fa0:	f9ff800c 	.word	0xf9ff800c
 8052fa4:	04c4b400 	.word	0x04c4b400
 8052fa8:	2000002c 	.word	0x2000002c

08052fac <z_sys_init_run_level>:
 8052fac:	b5f8      	push	{r3, r4, r5, r6, r7, lr}
 8052fae:	4b10      	ldr	r3, [pc, #64]	; (8052ff0 <z_sys_init_run_level+0x44>)
 8052fb0:	4f10      	ldr	r7, [pc, #64]	; (8052ff4 <z_sys_init_run_level+0x48>)
 8052fb2:	f853 5020 	ldr.w	r5, [r3, r0, lsl #2]
 8052fb6:	3001      	adds	r0, #1
 8052fb8:	f853 6020 	ldr.w	r6, [r3, r0, lsl #2]
 8052fbc:	42ae      	cmp	r6, r5
 8052fbe:	d800      	bhi.n	8052fc2 <z_sys_init_run_level+0x16>
 8052fc0:	bdf8      	pop	{r3, r4, r5, r6, r7, pc}
 8052fc2:	e9d5 3400 	ldrd	r3, r4, [r5]
 8052fc6:	4620      	mov	r0, r4
 8052fc8:	4798      	blx	r3
 8052fca:	b970      	cbnz	r0, 8052fea <z_sys_init_run_level+0x3e>
 8052fcc:	b16c      	cbz	r4, 8052fea <z_sys_init_run_level+0x3e>
 8052fce:	2301      	movs	r3, #1
 8052fd0:	1be4      	subs	r4, r4, r7
 8052fd2:	4a09      	ldr	r2, [pc, #36]	; (8052ff8 <z_sys_init_run_level+0x4c>)
 8052fd4:	1124      	asrs	r4, r4, #4
 8052fd6:	0961      	lsrs	r1, r4, #5
 8052fd8:	f852 0021 	ldr.w	r0, [r2, r1, lsl #2]
 8052fdc:	f004 041f 	and.w	r4, r4, #31
 8052fe0:	fa03 f404 	lsl.w	r4, r3, r4
 8052fe4:	4304      	orrs	r4, r0
 8052fe6:	f842 4021 	str.w	r4, [r2, r1, lsl #2]
 8052fea:	3508      	adds	r5, #8
 8052fec:	e7e6      	b.n	8052fbc <z_sys_init_run_level+0x10>
 8052fee:	bf00      	nop
 8052ff0:	08055304 	.word	0x08055304
 8052ff4:	20000038 	.word	0x20000038
 8052ff8:	200000f8 	.word	0x200000f8

08052ffc <z_device_ready>:
 8052ffc:	4b08      	ldr	r3, [pc, #32]	; (8053020 <z_device_ready+0x24>)
 8052ffe:	1ac0      	subs	r0, r0, r3
 8053000:	1100      	asrs	r0, r0, #4
 8053002:	4b08      	ldr	r3, [pc, #32]	; (8053024 <z_device_ready+0x28>)
 8053004:	0942      	lsrs	r2, r0, #5
 8053006:	f853 2022 	ldr.w	r2, [r3, r2, lsl #2]
 805300a:	2301      	movs	r3, #1
 805300c:	f000 001f 	and.w	r0, r0, #31
 8053010:	fa03 f000 	lsl.w	r0, r3, r0
 8053014:	4210      	tst	r0, r2
 8053016:	bf14      	ite	ne
 8053018:	4618      	movne	r0, r3
 805301a:	2000      	moveq	r0, #0
 805301c:	4770      	bx	lr
 805301e:	bf00      	nop
 8053020:	20000038 	.word	0x20000038
 8053024:	200000f8 	.word	0x200000f8

08053028 <z_impl_device_get_binding>:
 8053028:	4911      	ldr	r1, [pc, #68]	; (8053070 <z_impl_device_get_binding+0x48>)
 805302a:	b570      	push	{r4, r5, r6, lr}
 805302c:	4605      	mov	r5, r0
 805302e:	460e      	mov	r6, r1
 8053030:	4c10      	ldr	r4, [pc, #64]	; (8053074 <z_impl_device_get_binding+0x4c>)
 8053032:	428c      	cmp	r4, r1
 8053034:	d104      	bne.n	8053040 <z_impl_device_get_binding+0x18>
 8053036:	4c0f      	ldr	r4, [pc, #60]	; (8053074 <z_impl_device_get_binding+0x4c>)
 8053038:	42b4      	cmp	r4, r6
 805303a:	d10a      	bne.n	8053052 <z_impl_device_get_binding+0x2a>
 805303c:	2400      	movs	r4, #0
 805303e:	e014      	b.n	805306a <z_impl_device_get_binding+0x42>
 8053040:	4620      	mov	r0, r4
 8053042:	f7ff ffdb 	bl	8052ffc <z_device_ready>
 8053046:	b110      	cbz	r0, 805304e <z_impl_device_get_binding+0x26>
 8053048:	6823      	ldr	r3, [r4, #0]
 805304a:	42ab      	cmp	r3, r5
 805304c:	d00d      	beq.n	805306a <z_impl_device_get_binding+0x42>
 805304e:	3410      	adds	r4, #16
 8053050:	e7ef      	b.n	8053032 <z_impl_device_get_binding+0xa>
 8053052:	4620      	mov	r0, r4
 8053054:	f7ff ffd2 	bl	8052ffc <z_device_ready>
 8053058:	b908      	cbnz	r0, 805305e <z_impl_device_get_binding+0x36>
 805305a:	3410      	adds	r4, #16
 805305c:	e7ec      	b.n	8053038 <z_impl_device_get_binding+0x10>
 805305e:	4628      	mov	r0, r5
 8053060:	6821      	ldr	r1, [r4, #0]
 8053062:	f001 fb0e 	bl	8054682 <strcmp>
 8053066:	2800      	cmp	r0, #0
 8053068:	d1f7      	bne.n	805305a <z_impl_device_get_binding+0x32>
 805306a:	4620      	mov	r0, r4
 805306c:	bd70      	pop	{r4, r5, r6, pc}
 805306e:	bf00      	nop
 8053070:	200000f8 	.word	0x200000f8
 8053074:	20000038 	.word	0x20000038

08053078 <z_bss_zero>:
 8053078:	4802      	ldr	r0, [pc, #8]	; (8053084 <z_bss_zero+0xc>)
 805307a:	4a03      	ldr	r2, [pc, #12]	; (8053088 <z_bss_zero+0x10>)
 805307c:	2100      	movs	r1, #0
 805307e:	1a12      	subs	r2, r2, r0
 8053080:	f001 bb36 	b.w	80546f0 <memset>
 8053084:	200001e0 	.word	0x200001e0
 8053088:	20001884 	.word	0x20001884

0805308c <z_data_copy>:
 805308c:	b508      	push	{r3, lr}
 805308e:	4806      	ldr	r0, [pc, #24]	; (80530a8 <z_data_copy+0x1c>)
 8053090:	4a06      	ldr	r2, [pc, #24]	; (80530ac <z_data_copy+0x20>)
 8053092:	4907      	ldr	r1, [pc, #28]	; (80530b0 <z_data_copy+0x24>)
 8053094:	1a12      	subs	r2, r2, r0
 8053096:	f001 fb00 	bl	805469a <memcpy>
 805309a:	e8bd 4008 	ldmia.w	sp!, {r3, lr}
 805309e:	4a05      	ldr	r2, [pc, #20]	; (80530b4 <z_data_copy+0x28>)
 80530a0:	4905      	ldr	r1, [pc, #20]	; (80530b8 <z_data_copy+0x2c>)
 80530a2:	4806      	ldr	r0, [pc, #24]	; (80530bc <z_data_copy+0x30>)
 80530a4:	f001 baf9 	b.w	805469a <memcpy>
 80530a8:	20000000 	.word	0x20000000
 80530ac:	200001e0 	.word	0x200001e0
 80530b0:	08055600 	.word	0x08055600
 80530b4:	00000000 	.word	0x00000000
 80530b8:	08055600 	.word	0x08055600
 80530bc:	20000000 	.word	0x20000000

080530c0 <bg_thread_main>:
 80530c0:	2201      	movs	r2, #1
 80530c2:	b508      	push	{r3, lr}
 80530c4:	4b0b      	ldr	r3, [pc, #44]	; (80530f4 <bg_thread_main+0x34>)
 80530c6:	2002      	movs	r0, #2
 80530c8:	701a      	strb	r2, [r3, #0]
 80530ca:	f7ff ff6f 	bl	8052fac <z_sys_init_run_level>
 80530ce:	4a0a      	ldr	r2, [pc, #40]	; (80530f8 <bg_thread_main+0x38>)
 80530d0:	490a      	ldr	r1, [pc, #40]	; (80530fc <bg_thread_main+0x3c>)
 80530d2:	480b      	ldr	r0, [pc, #44]	; (8053100 <bg_thread_main+0x40>)
 80530d4:	f000 fe25 	bl	8053d22 <printk>
 80530d8:	2003      	movs	r0, #3
 80530da:	f7ff ff67 	bl	8052fac <z_sys_init_run_level>
 80530de:	f000 fc37 	bl	8053950 <z_init_static_threads>
 80530e2:	f7fe fc93 	bl	8051a0c <main>
 80530e6:	4a07      	ldr	r2, [pc, #28]	; (8053104 <bg_thread_main+0x44>)
 80530e8:	7b13      	ldrb	r3, [r2, #12]
 80530ea:	f023 0301 	bic.w	r3, r3, #1
 80530ee:	7313      	strb	r3, [r2, #12]
 80530f0:	bd08      	pop	{r3, pc}
 80530f2:	bf00      	nop
 80530f4:	20001880 	.word	0x20001880
 80530f8:	080554bf 	.word	0x080554bf
 80530fc:	080555ad 	.word	0x080555ad
 8053100:	080555c9 	.word	0x080555c9
 8053104:	20000298 	.word	0x20000298

08053108 <z_cstart>:
 8053108:	e92d 4880 	stmdb	sp!, {r7, fp, lr}
 805310c:	4b36      	ldr	r3, [pc, #216]	; (80531e8 <z_cstart+0xe0>)
 805310e:	b0b7      	sub	sp, #220	; 0xdc
 8053110:	f383 8808 	msr	MSP, r3
 8053114:	2400      	movs	r4, #0
 8053116:	23e0      	movs	r3, #224	; 0xe0
 8053118:	4d34      	ldr	r5, [pc, #208]	; (80531ec <z_cstart+0xe4>)
 805311a:	f04f 0a01 	mov.w	sl, #1
 805311e:	f885 3022 	strb.w	r3, [r5, #34]	; 0x22
 8053122:	77ec      	strb	r4, [r5, #31]
 8053124:	762c      	strb	r4, [r5, #24]
 8053126:	766c      	strb	r4, [r5, #25]
 8053128:	76ac      	strb	r4, [r5, #26]
 805312a:	6a6b      	ldr	r3, [r5, #36]	; 0x24
 805312c:	4e30      	ldr	r6, [pc, #192]	; (80531f0 <z_cstart+0xe8>)
 805312e:	f443 23e0 	orr.w	r3, r3, #458752	; 0x70000
 8053132:	626b      	str	r3, [r5, #36]	; 0x24
 8053134:	f7ff fbdc 	bl	80528f0 <z_arm_fault_init>
 8053138:	f7ff fa82 	bl	8052640 <z_arm_cpu_idle_init>
 805313c:	f04f 33ff 	mov.w	r3, #4294967295	; 0xffffffff
 8053140:	62ab      	str	r3, [r5, #40]	; 0x28
 8053142:	62eb      	str	r3, [r5, #44]	; 0x2c
 8053144:	f240 1301 	movw	r3, #257	; 0x101
 8053148:	4d2a      	ldr	r5, [pc, #168]	; (80531f4 <z_cstart+0xec>)
 805314a:	f8ad 302c 	strh.w	r3, [sp, #44]	; 0x2c
 805314e:	ab08      	add	r3, sp, #32
 8053150:	60ab      	str	r3, [r5, #8]
 8053152:	4620      	mov	r0, r4
 8053154:	e9cd 442f 	strd	r4, r4, [sp, #188]	; 0xbc
 8053158:	f7ff ff28 	bl	8052fac <z_sys_init_run_level>
 805315c:	2001      	movs	r0, #1
 805315e:	f7ff ff25 	bl	8052fac <z_sys_init_run_level>
 8053162:	f8df 90ac 	ldr.w	r9, [pc, #172]	; 8053210 <z_cstart+0x108>
 8053166:	f000 fb5b 	bl	8053820 <z_sched_init>
 805316a:	4b23      	ldr	r3, [pc, #140]	; (80531f8 <z_cstart+0xf0>)
 805316c:	622e      	str	r6, [r5, #32]
 805316e:	f44f 5280 	mov.w	r2, #4096	; 0x1000
 8053172:	4922      	ldr	r1, [pc, #136]	; (80531fc <z_cstart+0xf4>)
 8053174:	9305      	str	r3, [sp, #20]
 8053176:	4630      	mov	r0, r6
 8053178:	464b      	mov	r3, r9
 805317a:	e9cd 4a03 	strd	r4, sl, [sp, #12]
 805317e:	e9cd 4401 	strd	r4, r4, [sp, #4]
 8053182:	9400      	str	r4, [sp, #0]
 8053184:	f000 fb84 	bl	8053890 <z_setup_new_thread>
 8053188:	7b73      	ldrb	r3, [r6, #13]
 805318a:	4680      	mov	r8, r0
 805318c:	f023 0304 	bic.w	r3, r3, #4
 8053190:	4630      	mov	r0, r6
 8053192:	f10d 0b18 	add.w	fp, sp, #24
 8053196:	7373      	strb	r3, [r6, #13]
 8053198:	f001 fd36 	bl	8054c08 <z_ready_thread>
 805319c:	4623      	mov	r3, r4
 805319e:	2108      	movs	r1, #8
 80531a0:	4a17      	ldr	r2, [pc, #92]	; (8053200 <z_cstart+0xf8>)
 80531a2:	4658      	mov	r0, fp
 80531a4:	f000 fdca 	bl	8053d3c <snprintk>
 80531a8:	2338      	movs	r3, #56	; 0x38
 80531aa:	4f16      	ldr	r7, [pc, #88]	; (8053204 <z_cstart+0xfc>)
 80531ac:	f44f 72a0 	mov.w	r2, #320	; 0x140
 80531b0:	e9cd 4302 	strd	r4, r3, [sp, #8]
 80531b4:	4914      	ldr	r1, [pc, #80]	; (8053208 <z_cstart+0x100>)
 80531b6:	4b15      	ldr	r3, [pc, #84]	; (805320c <z_cstart+0x104>)
 80531b8:	4638      	mov	r0, r7
 80531ba:	e9cd ab04 	strd	sl, fp, [sp, #16]
 80531be:	e9cd 4400 	strd	r4, r4, [sp]
 80531c2:	f000 fb65 	bl	8053890 <z_setup_new_thread>
 80531c6:	7b7b      	ldrb	r3, [r7, #13]
 80531c8:	464a      	mov	r2, r9
 80531ca:	f023 0304 	bic.w	r3, r3, #4
 80531ce:	737b      	strb	r3, [r7, #13]
 80531d0:	4b05      	ldr	r3, [pc, #20]	; (80531e8 <z_cstart+0xe0>)
 80531d2:	4641      	mov	r1, r8
 80531d4:	606b      	str	r3, [r5, #4]
 80531d6:	f105 0318 	add.w	r3, r5, #24
 80531da:	4630      	mov	r0, r6
 80531dc:	e9c5 3306 	strd	r3, r3, [r5, #24]
 80531e0:	60ef      	str	r7, [r5, #12]
 80531e2:	752c      	strb	r4, [r5, #20]
 80531e4:	f7ff fa1a 	bl	805261c <arch_switch_to_main_thread>
 80531e8:	200031c8 	.word	0x200031c8
 80531ec:	e000ed00 	.word	0xe000ed00
 80531f0:	20000298 	.word	0x20000298
 80531f4:	20001838 	.word	0x20001838
 80531f8:	080555f0 	.word	0x080555f0
 80531fc:	20001888 	.word	0x20001888
 8053200:	080555f5 	.word	0x080555f5
 8053204:	200001e0 	.word	0x200001e0
 8053208:	20002888 	.word	0x20002888
 805320c:	08054d4d 	.word	0x08054d4d
 8053210:	080530c1 	.word	0x080530c1

08053214 <init_mem_slab_module>:
 8053214:	b570      	push	{r4, r5, r6, lr}
 8053216:	4b0e      	ldr	r3, [pc, #56]	; (8053250 <init_mem_slab_module+0x3c>)
 8053218:	4c0e      	ldr	r4, [pc, #56]	; (8053254 <init_mem_slab_module+0x40>)
 805321a:	42a3      	cmp	r3, r4
 805321c:	d301      	bcc.n	8053222 <init_mem_slab_module+0xe>
 805321e:	2000      	movs	r0, #0
 8053220:	bd70      	pop	{r4, r5, r6, pc}
 8053222:	e9d3 0103 	ldrd	r0, r1, [r3, #12]
 8053226:	ea41 0200 	orr.w	r2, r1, r0
 805322a:	f012 0203 	ands.w	r2, r2, #3
 805322e:	d10b      	bne.n	8053248 <init_mem_slab_module+0x34>
 8053230:	689d      	ldr	r5, [r3, #8]
 8053232:	615a      	str	r2, [r3, #20]
 8053234:	42aa      	cmp	r2, r5
 8053236:	d101      	bne.n	805323c <init_mem_slab_module+0x28>
 8053238:	331c      	adds	r3, #28
 805323a:	e7ee      	b.n	805321a <init_mem_slab_module+0x6>
 805323c:	695e      	ldr	r6, [r3, #20]
 805323e:	3201      	adds	r2, #1
 8053240:	600e      	str	r6, [r1, #0]
 8053242:	6159      	str	r1, [r3, #20]
 8053244:	4401      	add	r1, r0
 8053246:	e7f5      	b.n	8053234 <init_mem_slab_module+0x20>
 8053248:	f06f 0015 	mvn.w	r0, #21
 805324c:	e7e8      	b.n	8053220 <init_mem_slab_module+0xc>
 805324e:	bf00      	nop
 8053250:	200000fc 	.word	0x200000fc
 8053254:	200001a4 	.word	0x200001a4

08053258 <z_impl_k_mutex_lock>:
 8053258:	e92d 41f3 	stmdb	sp!, {r0, r1, r4, r5, r6, r7, r8, lr}
 805325c:	4604      	mov	r4, r0
 805325e:	4616      	mov	r6, r2
 8053260:	461f      	mov	r7, r3
 8053262:	f04f 0320 	mov.w	r3, #32
 8053266:	f3ef 8811 	mrs	r8, BASEPRI
 805326a:	f383 8811 	msr	BASEPRI, r3
 805326e:	f3bf 8f6f 	isb	sy
 8053272:	68c3      	ldr	r3, [r0, #12]
 8053274:	4a32      	ldr	r2, [pc, #200]	; (8053340 <z_impl_k_mutex_lock+0xe8>)
 8053276:	b16b      	cbz	r3, 8053294 <z_impl_k_mutex_lock+0x3c>
 8053278:	6880      	ldr	r0, [r0, #8]
 805327a:	6891      	ldr	r1, [r2, #8]
 805327c:	4288      	cmp	r0, r1
 805327e:	d019      	beq.n	80532b4 <z_impl_k_mutex_lock+0x5c>
 8053280:	ea56 0307 	orrs.w	r3, r6, r7
 8053284:	d118      	bne.n	80532b8 <z_impl_k_mutex_lock+0x60>
 8053286:	f388 8811 	msr	BASEPRI, r8
 805328a:	f3bf 8f6f 	isb	sy
 805328e:	f06f 000f 	mvn.w	r0, #15
 8053292:	e00c      	b.n	80532ae <z_impl_k_mutex_lock+0x56>
 8053294:	6891      	ldr	r1, [r2, #8]
 8053296:	f991 100e 	ldrsb.w	r1, [r1, #14]
 805329a:	3301      	adds	r3, #1
 805329c:	60e3      	str	r3, [r4, #12]
 805329e:	6893      	ldr	r3, [r2, #8]
 80532a0:	6121      	str	r1, [r4, #16]
 80532a2:	60a3      	str	r3, [r4, #8]
 80532a4:	f388 8811 	msr	BASEPRI, r8
 80532a8:	f3bf 8f6f 	isb	sy
 80532ac:	2000      	movs	r0, #0
 80532ae:	b002      	add	sp, #8
 80532b0:	e8bd 81f0 	ldmia.w	sp!, {r4, r5, r6, r7, r8, pc}
 80532b4:	6921      	ldr	r1, [r4, #16]
 80532b6:	e7f0      	b.n	805329a <z_impl_k_mutex_lock+0x42>
 80532b8:	f990 300e 	ldrsb.w	r3, [r0, #14]
 80532bc:	f991 100e 	ldrsb.w	r1, [r1, #14]
 80532c0:	4299      	cmp	r1, r3
 80532c2:	bfa8      	it	ge
 80532c4:	4619      	movge	r1, r3
 80532c6:	ea21 71e1 	bic.w	r1, r1, r1, asr #31
 80532ca:	4299      	cmp	r1, r3
 80532cc:	da2c      	bge.n	8053328 <z_impl_k_mutex_lock+0xd0>
 80532ce:	f000 fa7f 	bl	80537d0 <z_set_prio>
 80532d2:	4605      	mov	r5, r0
 80532d4:	4622      	mov	r2, r4
 80532d6:	4641      	mov	r1, r8
 80532d8:	e9cd 6700 	strd	r6, r7, [sp]
 80532dc:	4819      	ldr	r0, [pc, #100]	; (8053344 <z_impl_k_mutex_lock+0xec>)
 80532de:	f000 fa63 	bl	80537a8 <z_pend_curr>
 80532e2:	2800      	cmp	r0, #0
 80532e4:	d0e3      	beq.n	80532ae <z_impl_k_mutex_lock+0x56>
 80532e6:	f04f 0320 	mov.w	r3, #32
 80532ea:	f3ef 8611 	mrs	r6, BASEPRI
 80532ee:	f383 8811 	msr	BASEPRI, r3
 80532f2:	f3bf 8f6f 	isb	sy
 80532f6:	6823      	ldr	r3, [r4, #0]
 80532f8:	6921      	ldr	r1, [r4, #16]
 80532fa:	42a3      	cmp	r3, r4
 80532fc:	d007      	beq.n	805330e <z_impl_k_mutex_lock+0xb6>
 80532fe:	b133      	cbz	r3, 805330e <z_impl_k_mutex_lock+0xb6>
 8053300:	f993 300e 	ldrsb.w	r3, [r3, #14]
 8053304:	4299      	cmp	r1, r3
 8053306:	bfa8      	it	ge
 8053308:	4619      	movge	r1, r3
 805330a:	ea21 71e1 	bic.w	r1, r1, r1, asr #31
 805330e:	68a0      	ldr	r0, [r4, #8]
 8053310:	f990 300e 	ldrsb.w	r3, [r0, #14]
 8053314:	4299      	cmp	r1, r3
 8053316:	d109      	bne.n	805332c <z_impl_k_mutex_lock+0xd4>
 8053318:	b16d      	cbz	r5, 8053336 <z_impl_k_mutex_lock+0xde>
 805331a:	4631      	mov	r1, r6
 805331c:	4809      	ldr	r0, [pc, #36]	; (8053344 <z_impl_k_mutex_lock+0xec>)
 805331e:	f000 f88f 	bl	8053440 <z_reschedule>
 8053322:	f06f 000a 	mvn.w	r0, #10
 8053326:	e7c2      	b.n	80532ae <z_impl_k_mutex_lock+0x56>
 8053328:	2500      	movs	r5, #0
 805332a:	e7d3      	b.n	80532d4 <z_impl_k_mutex_lock+0x7c>
 805332c:	f000 fa50 	bl	80537d0 <z_set_prio>
 8053330:	2800      	cmp	r0, #0
 8053332:	d1f2      	bne.n	805331a <z_impl_k_mutex_lock+0xc2>
 8053334:	e7f0      	b.n	8053318 <z_impl_k_mutex_lock+0xc0>
 8053336:	f386 8811 	msr	BASEPRI, r6
 805333a:	f3bf 8f6f 	isb	sy
 805333e:	e7f0      	b.n	8053322 <z_impl_k_mutex_lock+0xca>
 8053340:	20001838 	.word	0x20001838
 8053344:	20001881 	.word	0x20001881

08053348 <z_impl_k_mutex_unlock>:
 8053348:	b538      	push	{r3, r4, r5, lr}
 805334a:	6883      	ldr	r3, [r0, #8]
 805334c:	4604      	mov	r4, r0
 805334e:	2b00      	cmp	r3, #0
 8053350:	d037      	beq.n	80533c2 <z_impl_k_mutex_unlock+0x7a>
 8053352:	4a1f      	ldr	r2, [pc, #124]	; (80533d0 <z_impl_k_mutex_unlock+0x88>)
 8053354:	6892      	ldr	r2, [r2, #8]
 8053356:	4293      	cmp	r3, r2
 8053358:	d136      	bne.n	80533c8 <z_impl_k_mutex_unlock+0x80>
 805335a:	7bda      	ldrb	r2, [r3, #15]
 805335c:	3a01      	subs	r2, #1
 805335e:	73da      	strb	r2, [r3, #15]
 8053360:	68c3      	ldr	r3, [r0, #12]
 8053362:	2b01      	cmp	r3, #1
 8053364:	d005      	beq.n	8053372 <z_impl_k_mutex_unlock+0x2a>
 8053366:	3b01      	subs	r3, #1
 8053368:	60c3      	str	r3, [r0, #12]
 805336a:	f000 f8c9 	bl	8053500 <k_sched_unlock>
 805336e:	2000      	movs	r0, #0
 8053370:	bd38      	pop	{r3, r4, r5, pc}
 8053372:	f04f 0320 	mov.w	r3, #32
 8053376:	f3ef 8511 	mrs	r5, BASEPRI
 805337a:	f383 8811 	msr	BASEPRI, r3
 805337e:	f3bf 8f6f 	isb	sy
 8053382:	6901      	ldr	r1, [r0, #16]
 8053384:	6880      	ldr	r0, [r0, #8]
 8053386:	f990 300e 	ldrsb.w	r3, [r0, #14]
 805338a:	4299      	cmp	r1, r3
 805338c:	d001      	beq.n	8053392 <z_impl_k_mutex_unlock+0x4a>
 805338e:	f000 fa1f 	bl	80537d0 <z_set_prio>
 8053392:	4620      	mov	r0, r4
 8053394:	f001 fbd8 	bl	8054b48 <z_unpend_first_thread>
 8053398:	60a0      	str	r0, [r4, #8]
 805339a:	b160      	cbz	r0, 80533b6 <z_impl_k_mutex_unlock+0x6e>
 805339c:	f990 200e 	ldrsb.w	r2, [r0, #14]
 80533a0:	6122      	str	r2, [r4, #16]
 80533a2:	2200      	movs	r2, #0
 80533a4:	f8c0 20b0 	str.w	r2, [r0, #176]	; 0xb0
 80533a8:	f001 fc2e 	bl	8054c08 <z_ready_thread>
 80533ac:	4629      	mov	r1, r5
 80533ae:	4809      	ldr	r0, [pc, #36]	; (80533d4 <z_impl_k_mutex_unlock+0x8c>)
 80533b0:	f000 f846 	bl	8053440 <z_reschedule>
 80533b4:	e7d9      	b.n	805336a <z_impl_k_mutex_unlock+0x22>
 80533b6:	60e0      	str	r0, [r4, #12]
 80533b8:	f385 8811 	msr	BASEPRI, r5
 80533bc:	f3bf 8f6f 	isb	sy
 80533c0:	e7d3      	b.n	805336a <z_impl_k_mutex_unlock+0x22>
 80533c2:	f06f 0015 	mvn.w	r0, #21
 80533c6:	e7d3      	b.n	8053370 <z_impl_k_mutex_unlock+0x28>
 80533c8:	f04f 30ff 	mov.w	r0, #4294967295	; 0xffffffff
 80533cc:	e7d0      	b.n	8053370 <z_impl_k_mutex_unlock+0x28>
 80533ce:	bf00      	nop
 80533d0:	20001838 	.word	0x20001838
 80533d4:	20001881 	.word	0x20001881

080533d8 <z_reset_time_slice>:
 80533d8:	b510      	push	{r4, lr}
 80533da:	4c08      	ldr	r4, [pc, #32]	; (80533fc <z_reset_time_slice+0x24>)
 80533dc:	6823      	ldr	r3, [r4, #0]
 80533de:	b15b      	cbz	r3, 80533f8 <z_reset_time_slice+0x20>
 80533e0:	f7ff f860 	bl	80524a4 <z_clock_elapsed>
 80533e4:	4603      	mov	r3, r0
 80533e6:	6820      	ldr	r0, [r4, #0]
 80533e8:	4a05      	ldr	r2, [pc, #20]	; (8053400 <z_reset_time_slice+0x28>)
 80533ea:	4403      	add	r3, r0
 80533ec:	2100      	movs	r1, #0
 80533ee:	e8bd 4010 	ldmia.w	sp!, {r4, lr}
 80533f2:	6113      	str	r3, [r2, #16]
 80533f4:	f001 bc90 	b.w	8054d18 <z_set_timeout_expiry>
 80533f8:	bd10      	pop	{r4, pc}
 80533fa:	bf00      	nop
 80533fc:	20001878 	.word	0x20001878
 8053400:	20001838 	.word	0x20001838

08053404 <k_sched_time_slice_set>:
 8053404:	b510      	push	{r4, lr}
 8053406:	f04f 0320 	mov.w	r3, #32
 805340a:	f3ef 8411 	mrs	r4, BASEPRI
 805340e:	f383 8811 	msr	BASEPRI, r3
 8053412:	f3bf 8f6f 	isb	sy
 8053416:	2200      	movs	r2, #0
 8053418:	4b06      	ldr	r3, [pc, #24]	; (8053434 <k_sched_time_slice_set+0x30>)
 805341a:	611a      	str	r2, [r3, #16]
 805341c:	4b06      	ldr	r3, [pc, #24]	; (8053438 <k_sched_time_slice_set+0x34>)
 805341e:	6018      	str	r0, [r3, #0]
 8053420:	4b06      	ldr	r3, [pc, #24]	; (805343c <k_sched_time_slice_set+0x38>)
 8053422:	6019      	str	r1, [r3, #0]
 8053424:	f7ff ffd8 	bl	80533d8 <z_reset_time_slice>
 8053428:	f384 8811 	msr	BASEPRI, r4
 805342c:	f3bf 8f6f 	isb	sy
 8053430:	bd10      	pop	{r4, pc}
 8053432:	bf00      	nop
 8053434:	20001838 	.word	0x20001838
 8053438:	20001878 	.word	0x20001878
 805343c:	20001874 	.word	0x20001874

08053440 <z_reschedule>:
 8053440:	b949      	cbnz	r1, 8053456 <z_reschedule+0x16>
 8053442:	f3ef 8005 	mrs	r0, IPSR
 8053446:	b930      	cbnz	r0, 8053456 <z_reschedule+0x16>
 8053448:	4b05      	ldr	r3, [pc, #20]	; (8053460 <z_reschedule+0x20>)
 805344a:	6a1a      	ldr	r2, [r3, #32]
 805344c:	689b      	ldr	r3, [r3, #8]
 805344e:	429a      	cmp	r2, r3
 8053450:	d001      	beq.n	8053456 <z_reschedule+0x16>
 8053452:	f7ff b84f 	b.w	80524f4 <arch_swap>
 8053456:	f381 8811 	msr	BASEPRI, r1
 805345a:	f3bf 8f6f 	isb	sy
 805345e:	4770      	bx	lr
 8053460:	20001838 	.word	0x20001838

08053464 <k_sched_lock>:
 8053464:	f04f 0320 	mov.w	r3, #32
 8053468:	f3ef 8111 	mrs	r1, BASEPRI
 805346c:	f383 8811 	msr	BASEPRI, r3
 8053470:	f3bf 8f6f 	isb	sy
 8053474:	4b04      	ldr	r3, [pc, #16]	; (8053488 <k_sched_lock+0x24>)
 8053476:	689a      	ldr	r2, [r3, #8]
 8053478:	7bd3      	ldrb	r3, [r2, #15]
 805347a:	3b01      	subs	r3, #1
 805347c:	73d3      	strb	r3, [r2, #15]
 805347e:	f381 8811 	msr	BASEPRI, r1
 8053482:	f3bf 8f6f 	isb	sy
 8053486:	4770      	bx	lr
 8053488:	20001838 	.word	0x20001838

0805348c <z_priq_rb_remove>:
 805348c:	4b09      	ldr	r3, [pc, #36]	; (80534b4 <z_priq_rb_remove+0x28>)
 805348e:	b510      	push	{r4, lr}
 8053490:	f103 0224 	add.w	r2, r3, #36	; 0x24
 8053494:	4290      	cmp	r0, r2
 8053496:	4604      	mov	r4, r0
 8053498:	d105      	bne.n	80534a6 <z_priq_rb_remove+0x1a>
 805349a:	689b      	ldr	r3, [r3, #8]
 805349c:	428b      	cmp	r3, r1
 805349e:	d102      	bne.n	80534a6 <z_priq_rb_remove+0x1a>
 80534a0:	7b4b      	ldrb	r3, [r1, #13]
 80534a2:	06db      	lsls	r3, r3, #27
 80534a4:	d105      	bne.n	80534b2 <z_priq_rb_remove+0x26>
 80534a6:	4620      	mov	r0, r4
 80534a8:	f000 fe3a 	bl	8054120 <rb_remove>
 80534ac:	6823      	ldr	r3, [r4, #0]
 80534ae:	b903      	cbnz	r3, 80534b2 <z_priq_rb_remove+0x26>
 80534b0:	60e3      	str	r3, [r4, #12]
 80534b2:	bd10      	pop	{r4, pc}
 80534b4:	20001838 	.word	0x20001838

080534b8 <update_cache>:
 80534b8:	b570      	push	{r4, r5, r6, lr}
 80534ba:	4c10      	ldr	r4, [pc, #64]	; (80534fc <update_cache+0x44>)
 80534bc:	4606      	mov	r6, r0
 80534be:	f104 0024 	add.w	r0, r4, #36	; 0x24
 80534c2:	f001 fb99 	bl	8054bf8 <z_priq_rb_best>
 80534c6:	68a3      	ldr	r3, [r4, #8]
 80534c8:	4605      	mov	r5, r0
 80534ca:	7b5a      	ldrb	r2, [r3, #13]
 80534cc:	0691      	lsls	r1, r2, #26
 80534ce:	bf44      	itt	mi
 80534d0:	f042 0208 	orrmi.w	r2, r2, #8
 80534d4:	735a      	strbmi	r2, [r3, #13]
 80534d6:	b900      	cbnz	r0, 80534da <update_cache+0x22>
 80534d8:	68e5      	ldr	r5, [r4, #12]
 80534da:	b94e      	cbnz	r6, 80534f0 <update_cache+0x38>
 80534dc:	7b5a      	ldrb	r2, [r3, #13]
 80534de:	06d2      	lsls	r2, r2, #27
 80534e0:	d106      	bne.n	80534f0 <update_cache+0x38>
 80534e2:	69aa      	ldr	r2, [r5, #24]
 80534e4:	b922      	cbnz	r2, 80534f0 <update_cache+0x38>
 80534e6:	89da      	ldrh	r2, [r3, #14]
 80534e8:	2a7f      	cmp	r2, #127	; 0x7f
 80534ea:	d901      	bls.n	80534f0 <update_cache+0x38>
 80534ec:	6223      	str	r3, [r4, #32]
 80534ee:	bd70      	pop	{r4, r5, r6, pc}
 80534f0:	42ab      	cmp	r3, r5
 80534f2:	d001      	beq.n	80534f8 <update_cache+0x40>
 80534f4:	f7ff ff70 	bl	80533d8 <z_reset_time_slice>
 80534f8:	6225      	str	r5, [r4, #32]
 80534fa:	e7f8      	b.n	80534ee <update_cache+0x36>
 80534fc:	20001838 	.word	0x20001838

08053500 <k_sched_unlock>:
 8053500:	b510      	push	{r4, lr}
 8053502:	f04f 0320 	mov.w	r3, #32
 8053506:	f3ef 8411 	mrs	r4, BASEPRI
 805350a:	f383 8811 	msr	BASEPRI, r3
 805350e:	f3bf 8f6f 	isb	sy
 8053512:	4b08      	ldr	r3, [pc, #32]	; (8053534 <k_sched_unlock+0x34>)
 8053514:	2000      	movs	r0, #0
 8053516:	689a      	ldr	r2, [r3, #8]
 8053518:	7bd3      	ldrb	r3, [r2, #15]
 805351a:	3301      	adds	r3, #1
 805351c:	73d3      	strb	r3, [r2, #15]
 805351e:	f7ff ffcb 	bl	80534b8 <update_cache>
 8053522:	f384 8811 	msr	BASEPRI, r4
 8053526:	f3bf 8f6f 	isb	sy
 805352a:	e8bd 4010 	ldmia.w	sp!, {r4, lr}
 805352e:	f001 baf7 	b.w	8054b20 <z_reschedule_unlocked>
 8053532:	bf00      	nop
 8053534:	20001838 	.word	0x20001838

08053538 <ready_thread>:
 8053538:	b538      	push	{r3, r4, r5, lr}
 805353a:	7b43      	ldrb	r3, [r0, #13]
 805353c:	4604      	mov	r4, r0
 805353e:	06db      	lsls	r3, r3, #27
 8053540:	d10e      	bne.n	8053560 <ready_thread+0x28>
 8053542:	6985      	ldr	r5, [r0, #24]
 8053544:	b965      	cbnz	r5, 8053560 <ready_thread+0x28>
 8053546:	4601      	mov	r1, r0
 8053548:	4806      	ldr	r0, [pc, #24]	; (8053564 <ready_thread+0x2c>)
 805354a:	f001 fb27 	bl	8054b9c <z_priq_rb_add>
 805354e:	7b63      	ldrb	r3, [r4, #13]
 8053550:	4628      	mov	r0, r5
 8053552:	f063 037f 	orn	r3, r3, #127	; 0x7f
 8053556:	7363      	strb	r3, [r4, #13]
 8053558:	e8bd 4038 	ldmia.w	sp!, {r3, r4, r5, lr}
 805355c:	f7ff bfac 	b.w	80534b8 <update_cache>
 8053560:	bd38      	pop	{r3, r4, r5, pc}
 8053562:	bf00      	nop
 8053564:	2000185c 	.word	0x2000185c

08053568 <z_sched_start>:
 8053568:	b510      	push	{r4, lr}
 805356a:	f04f 0220 	mov.w	r2, #32
 805356e:	f3ef 8411 	mrs	r4, BASEPRI
 8053572:	f382 8811 	msr	BASEPRI, r2
 8053576:	f3bf 8f6f 	isb	sy
 805357a:	7b42      	ldrb	r2, [r0, #13]
 805357c:	0751      	lsls	r1, r2, #29
 805357e:	d404      	bmi.n	805358a <z_sched_start+0x22>
 8053580:	f384 8811 	msr	BASEPRI, r4
 8053584:	f3bf 8f6f 	isb	sy
 8053588:	bd10      	pop	{r4, pc}
 805358a:	f022 0204 	bic.w	r2, r2, #4
 805358e:	7342      	strb	r2, [r0, #13]
 8053590:	f7ff ffd2 	bl	8053538 <ready_thread>
 8053594:	4621      	mov	r1, r4
 8053596:	e8bd 4010 	ldmia.w	sp!, {r4, lr}
 805359a:	4801      	ldr	r0, [pc, #4]	; (80535a0 <z_sched_start+0x38>)
 805359c:	f7ff bf50 	b.w	8053440 <z_reschedule>
 80535a0:	20001881 	.word	0x20001881

080535a4 <z_move_thread_to_end_of_prio_q>:
 80535a4:	b570      	push	{r4, r5, r6, lr}
 80535a6:	4604      	mov	r4, r0
 80535a8:	f04f 0320 	mov.w	r3, #32
 80535ac:	f3ef 8611 	mrs	r6, BASEPRI
 80535b0:	f383 8811 	msr	BASEPRI, r3
 80535b4:	f3bf 8f6f 	isb	sy
 80535b8:	f990 300d 	ldrsb.w	r3, [r0, #13]
 80535bc:	2b00      	cmp	r3, #0
 80535be:	da03      	bge.n	80535c8 <z_move_thread_to_end_of_prio_q+0x24>
 80535c0:	4601      	mov	r1, r0
 80535c2:	480c      	ldr	r0, [pc, #48]	; (80535f4 <z_move_thread_to_end_of_prio_q+0x50>)
 80535c4:	f7ff ff62 	bl	805348c <z_priq_rb_remove>
 80535c8:	4d0b      	ldr	r5, [pc, #44]	; (80535f8 <z_move_thread_to_end_of_prio_q+0x54>)
 80535ca:	4621      	mov	r1, r4
 80535cc:	f105 0024 	add.w	r0, r5, #36	; 0x24
 80535d0:	f001 fae4 	bl	8054b9c <z_priq_rb_add>
 80535d4:	7b63      	ldrb	r3, [r4, #13]
 80535d6:	68a8      	ldr	r0, [r5, #8]
 80535d8:	f063 037f 	orn	r3, r3, #127	; 0x7f
 80535dc:	7363      	strb	r3, [r4, #13]
 80535de:	1b03      	subs	r3, r0, r4
 80535e0:	4258      	negs	r0, r3
 80535e2:	4158      	adcs	r0, r3
 80535e4:	f7ff ff68 	bl	80534b8 <update_cache>
 80535e8:	f386 8811 	msr	BASEPRI, r6
 80535ec:	f3bf 8f6f 	isb	sy
 80535f0:	bd70      	pop	{r4, r5, r6, pc}
 80535f2:	bf00      	nop
 80535f4:	2000185c 	.word	0x2000185c
 80535f8:	20001838 	.word	0x20001838

080535fc <z_time_slice>:
 80535fc:	b538      	push	{r3, r4, r5, lr}
 80535fe:	4a15      	ldr	r2, [pc, #84]	; (8053654 <z_time_slice+0x58>)
 8053600:	4b15      	ldr	r3, [pc, #84]	; (8053658 <z_time_slice+0x5c>)
 8053602:	6814      	ldr	r4, [r2, #0]
 8053604:	4601      	mov	r1, r0
 8053606:	6898      	ldr	r0, [r3, #8]
 8053608:	42a0      	cmp	r0, r4
 805360a:	461c      	mov	r4, r3
 805360c:	d103      	bne.n	8053616 <z_time_slice+0x1a>
 805360e:	e8bd 4038 	ldmia.w	sp!, {r3, r4, r5, lr}
 8053612:	f7ff bee1 	b.w	80533d8 <z_reset_time_slice>
 8053616:	2500      	movs	r5, #0
 8053618:	6015      	str	r5, [r2, #0]
 805361a:	4a10      	ldr	r2, [pc, #64]	; (805365c <z_time_slice+0x60>)
 805361c:	6812      	ldr	r2, [r2, #0]
 805361e:	b1b2      	cbz	r2, 805364e <z_time_slice+0x52>
 8053620:	89c2      	ldrh	r2, [r0, #14]
 8053622:	2a7f      	cmp	r2, #127	; 0x7f
 8053624:	d813      	bhi.n	805364e <z_time_slice+0x52>
 8053626:	4a0e      	ldr	r2, [pc, #56]	; (8053660 <z_time_slice+0x64>)
 8053628:	f990 500e 	ldrsb.w	r5, [r0, #14]
 805362c:	6812      	ldr	r2, [r2, #0]
 805362e:	4295      	cmp	r5, r2
 8053630:	db0d      	blt.n	805364e <z_time_slice+0x52>
 8053632:	4a0c      	ldr	r2, [pc, #48]	; (8053664 <z_time_slice+0x68>)
 8053634:	4290      	cmp	r0, r2
 8053636:	d00a      	beq.n	805364e <z_time_slice+0x52>
 8053638:	6982      	ldr	r2, [r0, #24]
 805363a:	b942      	cbnz	r2, 805364e <z_time_slice+0x52>
 805363c:	691a      	ldr	r2, [r3, #16]
 805363e:	428a      	cmp	r2, r1
 8053640:	dc02      	bgt.n	8053648 <z_time_slice+0x4c>
 8053642:	f7ff ffaf 	bl	80535a4 <z_move_thread_to_end_of_prio_q>
 8053646:	e7e2      	b.n	805360e <z_time_slice+0x12>
 8053648:	1a52      	subs	r2, r2, r1
 805364a:	611a      	str	r2, [r3, #16]
 805364c:	bd38      	pop	{r3, r4, r5, pc}
 805364e:	2300      	movs	r3, #0
 8053650:	6123      	str	r3, [r4, #16]
 8053652:	e7fb      	b.n	805364c <z_time_slice+0x50>
 8053654:	20001870 	.word	0x20001870
 8053658:	20001838 	.word	0x20001838
 805365c:	20001878 	.word	0x20001878
 8053660:	20001874 	.word	0x20001874
 8053664:	200001e0 	.word	0x200001e0

08053668 <z_thread_single_abort>:
 8053668:	6e03      	ldr	r3, [r0, #96]	; 0x60
 805366a:	e92d 41f0 	stmdb	sp!, {r4, r5, r6, r7, r8, lr}
 805366e:	4604      	mov	r4, r0
 8053670:	b103      	cbz	r3, 8053674 <z_thread_single_abort+0xc>
 8053672:	4798      	blx	r3
 8053674:	f104 0018 	add.w	r0, r4, #24
 8053678:	f001 fb28 	bl	8054ccc <z_abort_timeout>
 805367c:	f04f 0320 	mov.w	r3, #32
 8053680:	f3ef 8611 	mrs	r6, BASEPRI
 8053684:	f383 8811 	msr	BASEPRI, r3
 8053688:	f3bf 8f6f 	isb	sy
 805368c:	7b63      	ldrb	r3, [r4, #13]
 805368e:	06d8      	lsls	r0, r3, #27
 8053690:	d126      	bne.n	80536e0 <z_thread_single_abort+0x78>
 8053692:	69a2      	ldr	r2, [r4, #24]
 8053694:	bb22      	cbnz	r2, 80536e0 <z_thread_single_abort+0x78>
 8053696:	0619      	lsls	r1, r3, #24
 8053698:	d507      	bpl.n	80536aa <z_thread_single_abort+0x42>
 805369a:	4621      	mov	r1, r4
 805369c:	481f      	ldr	r0, [pc, #124]	; (805371c <z_thread_single_abort+0xb4>)
 805369e:	f7ff fef5 	bl	805348c <z_priq_rb_remove>
 80536a2:	7b63      	ldrb	r3, [r4, #13]
 80536a4:	f003 037f 	and.w	r3, r3, #127	; 0x7f
 80536a8:	7363      	strb	r3, [r4, #13]
 80536aa:	4b1d      	ldr	r3, [pc, #116]	; (8053720 <z_thread_single_abort+0xb8>)
 80536ac:	6898      	ldr	r0, [r3, #8]
 80536ae:	1b02      	subs	r2, r0, r4
 80536b0:	4250      	negs	r0, r2
 80536b2:	4150      	adcs	r0, r2
 80536b4:	f7ff ff00 	bl	80534b8 <update_cache>
 80536b8:	2700      	movs	r7, #0
 80536ba:	7b63      	ldrb	r3, [r4, #13]
 80536bc:	f104 0830 	add.w	r8, r4, #48	; 0x30
 80536c0:	f043 0308 	orr.w	r3, r3, #8
 80536c4:	7363      	strb	r3, [r4, #13]
 80536c6:	6b25      	ldr	r5, [r4, #48]	; 0x30
 80536c8:	4545      	cmp	r5, r8
 80536ca:	d000      	beq.n	80536ce <z_thread_single_abort+0x66>
 80536cc:	b9a5      	cbnz	r5, 80536f8 <z_thread_single_abort+0x90>
 80536ce:	f386 8811 	msr	BASEPRI, r6
 80536d2:	f3bf 8f6f 	isb	sy
 80536d6:	4620      	mov	r0, r4
 80536d8:	e8bd 41f0 	ldmia.w	sp!, {r4, r5, r6, r7, r8, lr}
 80536dc:	f000 b8ba 	b.w	8053854 <z_thread_monitor_exit>
 80536e0:	079b      	lsls	r3, r3, #30
 80536e2:	d5e9      	bpl.n	80536b8 <z_thread_single_abort+0x50>
 80536e4:	4620      	mov	r0, r4
 80536e6:	f001 f9f5 	bl	8054ad4 <sys_dlist_remove>
 80536ea:	7b63      	ldrb	r3, [r4, #13]
 80536ec:	f023 0302 	bic.w	r3, r3, #2
 80536f0:	7363      	strb	r3, [r4, #13]
 80536f2:	2300      	movs	r3, #0
 80536f4:	60a3      	str	r3, [r4, #8]
 80536f6:	e7df      	b.n	80536b8 <z_thread_single_abort+0x50>
 80536f8:	f105 0018 	add.w	r0, r5, #24
 80536fc:	f001 fae6 	bl	8054ccc <z_abort_timeout>
 8053700:	4628      	mov	r0, r5
 8053702:	f001 f9e7 	bl	8054ad4 <sys_dlist_remove>
 8053706:	7b6b      	ldrb	r3, [r5, #13]
 8053708:	60af      	str	r7, [r5, #8]
 805370a:	f023 0302 	bic.w	r3, r3, #2
 805370e:	736b      	strb	r3, [r5, #13]
 8053710:	f8c5 70b0 	str.w	r7, [r5, #176]	; 0xb0
 8053714:	f7ff ff10 	bl	8053538 <ready_thread>
 8053718:	e7d5      	b.n	80536c6 <z_thread_single_abort+0x5e>
 805371a:	bf00      	nop
 805371c:	2000185c 	.word	0x2000185c
 8053720:	20001838 	.word	0x20001838

08053724 <unready_thread>:
 8053724:	b510      	push	{r4, lr}
 8053726:	f990 300d 	ldrsb.w	r3, [r0, #13]
 805372a:	4604      	mov	r4, r0
 805372c:	2b00      	cmp	r3, #0
 805372e:	da07      	bge.n	8053740 <unready_thread+0x1c>
 8053730:	4601      	mov	r1, r0
 8053732:	4808      	ldr	r0, [pc, #32]	; (8053754 <unready_thread+0x30>)
 8053734:	f7ff feaa 	bl	805348c <z_priq_rb_remove>
 8053738:	7b63      	ldrb	r3, [r4, #13]
 805373a:	f003 037f 	and.w	r3, r3, #127	; 0x7f
 805373e:	7363      	strb	r3, [r4, #13]
 8053740:	4b05      	ldr	r3, [pc, #20]	; (8053758 <unready_thread+0x34>)
 8053742:	6898      	ldr	r0, [r3, #8]
 8053744:	1b03      	subs	r3, r0, r4
 8053746:	4258      	negs	r0, r3
 8053748:	4158      	adcs	r0, r3
 805374a:	e8bd 4010 	ldmia.w	sp!, {r4, lr}
 805374e:	f7ff beb3 	b.w	80534b8 <update_cache>
 8053752:	bf00      	nop
 8053754:	2000185c 	.word	0x2000185c
 8053758:	20001838 	.word	0x20001838

0805375c <pend>:
 805375c:	e92d 41f0 	stmdb	sp!, {r4, r5, r6, r7, r8, lr}
 8053760:	4606      	mov	r6, r0
 8053762:	4614      	mov	r4, r2
 8053764:	461d      	mov	r5, r3
 8053766:	f04f 0320 	mov.w	r3, #32
 805376a:	f3ef 8711 	mrs	r7, BASEPRI
 805376e:	f383 8811 	msr	BASEPRI, r3
 8053772:	f3bf 8f6f 	isb	sy
 8053776:	f001 fa7e 	bl	8054c76 <add_to_waitq_locked>
 805377a:	f387 8811 	msr	BASEPRI, r7
 805377e:	f3bf 8f6f 	isb	sy
 8053782:	1c6b      	adds	r3, r5, #1
 8053784:	bf08      	it	eq
 8053786:	f1b4 3fff 	cmpeq.w	r4, #4294967295	; 0xffffffff
 805378a:	d008      	beq.n	805379e <pend+0x42>
 805378c:	4622      	mov	r2, r4
 805378e:	462b      	mov	r3, r5
 8053790:	f106 0018 	add.w	r0, r6, #24
 8053794:	4903      	ldr	r1, [pc, #12]	; (80537a4 <pend+0x48>)
 8053796:	e8bd 41f0 	ldmia.w	sp!, {r4, r5, r6, r7, r8, lr}
 805379a:	f000 b95f 	b.w	8053a5c <z_add_timeout>
 805379e:	e8bd 81f0 	ldmia.w	sp!, {r4, r5, r6, r7, r8, pc}
 80537a2:	bf00      	nop
 80537a4:	08054c29 	.word	0x08054c29

080537a8 <z_pend_curr>:
 80537a8:	b510      	push	{r4, lr}
 80537aa:	460c      	mov	r4, r1
 80537ac:	4b06      	ldr	r3, [pc, #24]	; (80537c8 <z_pend_curr+0x20>)
 80537ae:	4611      	mov	r1, r2
 80537b0:	6898      	ldr	r0, [r3, #8]
 80537b2:	4b06      	ldr	r3, [pc, #24]	; (80537cc <z_pend_curr+0x24>)
 80537b4:	6018      	str	r0, [r3, #0]
 80537b6:	e9dd 2302 	ldrd	r2, r3, [sp, #8]
 80537ba:	f7ff ffcf 	bl	805375c <pend>
 80537be:	4620      	mov	r0, r4
 80537c0:	e8bd 4010 	ldmia.w	sp!, {r4, lr}
 80537c4:	f7fe be96 	b.w	80524f4 <arch_swap>
 80537c8:	20001838 	.word	0x20001838
 80537cc:	20001870 	.word	0x20001870

080537d0 <z_set_prio>:
 80537d0:	b570      	push	{r4, r5, r6, lr}
 80537d2:	4604      	mov	r4, r0
 80537d4:	f04f 0320 	mov.w	r3, #32
 80537d8:	f3ef 8611 	mrs	r6, BASEPRI
 80537dc:	f383 8811 	msr	BASEPRI, r3
 80537e0:	f3bf 8f6f 	isb	sy
 80537e4:	7b43      	ldrb	r3, [r0, #13]
 80537e6:	b24d      	sxtb	r5, r1
 80537e8:	06db      	lsls	r3, r3, #27
 80537ea:	d113      	bne.n	8053814 <z_set_prio+0x44>
 80537ec:	6983      	ldr	r3, [r0, #24]
 80537ee:	b98b      	cbnz	r3, 8053814 <z_set_prio+0x44>
 80537f0:	4601      	mov	r1, r0
 80537f2:	480a      	ldr	r0, [pc, #40]	; (805381c <z_set_prio+0x4c>)
 80537f4:	f7ff fe4a 	bl	805348c <z_priq_rb_remove>
 80537f8:	4621      	mov	r1, r4
 80537fa:	4808      	ldr	r0, [pc, #32]	; (805381c <z_set_prio+0x4c>)
 80537fc:	73a5      	strb	r5, [r4, #14]
 80537fe:	f001 f9cd 	bl	8054b9c <z_priq_rb_add>
 8053802:	2001      	movs	r0, #1
 8053804:	f7ff fe58 	bl	80534b8 <update_cache>
 8053808:	2001      	movs	r0, #1
 805380a:	f386 8811 	msr	BASEPRI, r6
 805380e:	f3bf 8f6f 	isb	sy
 8053812:	bd70      	pop	{r4, r5, r6, pc}
 8053814:	2000      	movs	r0, #0
 8053816:	73a5      	strb	r5, [r4, #14]
 8053818:	e7f7      	b.n	805380a <z_set_prio+0x3a>
 805381a:	bf00      	nop
 805381c:	2000185c 	.word	0x2000185c

08053820 <z_sched_init>:
 8053820:	b510      	push	{r4, lr}
 8053822:	4c07      	ldr	r4, [pc, #28]	; (8053840 <z_sched_init+0x20>)
 8053824:	2100      	movs	r1, #0
 8053826:	f104 0024 	add.w	r0, r4, #36	; 0x24
 805382a:	2210      	movs	r2, #16
 805382c:	f000 ff60 	bl	80546f0 <memset>
 8053830:	2100      	movs	r1, #0
 8053832:	4b04      	ldr	r3, [pc, #16]	; (8053844 <z_sched_init+0x24>)
 8053834:	4608      	mov	r0, r1
 8053836:	62a3      	str	r3, [r4, #40]	; 0x28
 8053838:	e8bd 4010 	ldmia.w	sp!, {r4, lr}
 805383c:	f7ff bde2 	b.w	8053404 <k_sched_time_slice_set>
 8053840:	20001838 	.word	0x20001838
 8053844:	08054ae5 	.word	0x08054ae5

08053848 <z_impl_k_current_get>:
 8053848:	4b01      	ldr	r3, [pc, #4]	; (8053850 <z_impl_k_current_get+0x8>)
 805384a:	6898      	ldr	r0, [r3, #8]
 805384c:	4770      	bx	lr
 805384e:	bf00      	nop
 8053850:	20001838 	.word	0x20001838

08053854 <z_thread_monitor_exit>:
 8053854:	f04f 0320 	mov.w	r3, #32
 8053858:	f3ef 8111 	mrs	r1, BASEPRI
 805385c:	f383 8811 	msr	BASEPRI, r3
 8053860:	f3bf 8f6f 	isb	sy
 8053864:	4a09      	ldr	r2, [pc, #36]	; (805388c <z_thread_monitor_exit+0x38>)
 8053866:	6b53      	ldr	r3, [r2, #52]	; 0x34
 8053868:	4283      	cmp	r3, r0
 805386a:	d107      	bne.n	805387c <z_thread_monitor_exit+0x28>
 805386c:	6f5b      	ldr	r3, [r3, #116]	; 0x74
 805386e:	6353      	str	r3, [r2, #52]	; 0x34
 8053870:	f381 8811 	msr	BASEPRI, r1
 8053874:	f3bf 8f6f 	isb	sy
 8053878:	4770      	bx	lr
 805387a:	4613      	mov	r3, r2
 805387c:	2b00      	cmp	r3, #0
 805387e:	d0f7      	beq.n	8053870 <z_thread_monitor_exit+0x1c>
 8053880:	6f5a      	ldr	r2, [r3, #116]	; 0x74
 8053882:	4282      	cmp	r2, r0
 8053884:	d1f9      	bne.n	805387a <z_thread_monitor_exit+0x26>
 8053886:	6f42      	ldr	r2, [r0, #116]	; 0x74
 8053888:	675a      	str	r2, [r3, #116]	; 0x74
 805388a:	e7f1      	b.n	8053870 <z_thread_monitor_exit+0x1c>
 805388c:	20001838 	.word	0x20001838

08053890 <z_setup_new_thread>:
 8053890:	e92d 4ff0 	stmdb	sp!, {r4, r5, r6, r7, r8, r9, sl, fp, lr}
 8053894:	460e      	mov	r6, r1
 8053896:	b085      	sub	sp, #20
 8053898:	f100 0130 	add.w	r1, r0, #48	; 0x30
 805389c:	e9c0 110c 	strd	r1, r1, [r0, #48]	; 0x30
 80538a0:	9912      	ldr	r1, [sp, #72]	; 0x48
 80538a2:	2500      	movs	r5, #0
 80538a4:	7301      	strb	r1, [r0, #12]
 80538a6:	2104      	movs	r1, #4
 80538a8:	4604      	mov	r4, r0
 80538aa:	4699      	mov	r9, r3
 80538ac:	7341      	strb	r1, [r0, #13]
 80538ae:	3207      	adds	r2, #7
 80538b0:	9911      	ldr	r1, [sp, #68]	; 0x44
 80538b2:	f022 0a07 	bic.w	sl, r2, #7
 80538b6:	4652      	mov	r2, sl
 80538b8:	e9c0 5506 	strd	r5, r5, [r0, #24]
 80538bc:	7381      	strb	r1, [r0, #14]
 80538be:	73c5      	strb	r5, [r0, #15]
 80538c0:	21aa      	movs	r1, #170	; 0xaa
 80538c2:	4630      	mov	r0, r6
 80538c4:	f8dd b038 	ldr.w	fp, [sp, #56]	; 0x38
 80538c8:	9f13      	ldr	r7, [sp, #76]	; 0x4c
 80538ca:	f000 ff11 	bl	80546f0 <memset>
 80538ce:	9b10      	ldr	r3, [sp, #64]	; 0x40
 80538d0:	eb06 080a 	add.w	r8, r6, sl
 80538d4:	9302      	str	r3, [sp, #8]
 80538d6:	9b0f      	ldr	r3, [sp, #60]	; 0x3c
 80538d8:	4642      	mov	r2, r8
 80538da:	e9cd b300 	strd	fp, r3, [sp]
 80538de:	4631      	mov	r1, r6
 80538e0:	464b      	mov	r3, r9
 80538e2:	4620      	mov	r0, r4
 80538e4:	e9c4 6a27 	strd	r6, sl, [r4, #156]	; 0x9c
 80538e8:	f8c4 50a4 	str.w	r5, [r4, #164]	; 0xa4
 80538ec:	f7fe fe7a 	bl	80525e4 <arch_new_thread>
 80538f0:	9b0f      	ldr	r3, [sp, #60]	; 0x3c
 80538f2:	e9c4 5517 	strd	r5, r5, [r4, #92]	; 0x5c
 80538f6:	66e3      	str	r3, [r4, #108]	; 0x6c
 80538f8:	9b10      	ldr	r3, [sp, #64]	; 0x40
 80538fa:	e9c4 9b19 	strd	r9, fp, [r4, #100]	; 0x64
 80538fe:	6723      	str	r3, [r4, #112]	; 0x70
 8053900:	f04f 0320 	mov.w	r3, #32
 8053904:	f3ef 8211 	mrs	r2, BASEPRI
 8053908:	f383 8811 	msr	BASEPRI, r3
 805390c:	f3bf 8f6f 	isb	sy
 8053910:	4e0e      	ldr	r6, [pc, #56]	; (805394c <z_setup_new_thread+0xbc>)
 8053912:	6b71      	ldr	r1, [r6, #52]	; 0x34
 8053914:	6374      	str	r4, [r6, #52]	; 0x34
 8053916:	6761      	str	r1, [r4, #116]	; 0x74
 8053918:	f382 8811 	msr	BASEPRI, r2
 805391c:	f3bf 8f6f 	isb	sy
 8053920:	b18f      	cbz	r7, 8053946 <z_setup_new_thread+0xb6>
 8053922:	221f      	movs	r2, #31
 8053924:	4639      	mov	r1, r7
 8053926:	f104 0078 	add.w	r0, r4, #120	; 0x78
 805392a:	f000 fe97 	bl	805465c <strncpy>
 805392e:	f884 5097 	strb.w	r5, [r4, #151]	; 0x97
 8053932:	68b3      	ldr	r3, [r6, #8]
 8053934:	b10b      	cbz	r3, 805393a <z_setup_new_thread+0xaa>
 8053936:	f8d3 30a8 	ldr.w	r3, [r3, #168]	; 0xa8
 805393a:	4640      	mov	r0, r8
 805393c:	f8c4 30a8 	str.w	r3, [r4, #168]	; 0xa8
 8053940:	b005      	add	sp, #20
 8053942:	e8bd 8ff0 	ldmia.w	sp!, {r4, r5, r6, r7, r8, r9, sl, fp, pc}
 8053946:	f884 7078 	strb.w	r7, [r4, #120]	; 0x78
 805394a:	e7f2      	b.n	8053932 <z_setup_new_thread+0xa2>
 805394c:	20001838 	.word	0x20001838

08053950 <z_init_static_threads>:
 8053950:	b5f0      	push	{r4, r5, r6, r7, lr}
 8053952:	4e20      	ldr	r6, [pc, #128]	; (80539d4 <z_init_static_threads+0x84>)
 8053954:	4d20      	ldr	r5, [pc, #128]	; (80539d8 <z_init_static_threads+0x88>)
 8053956:	4637      	mov	r7, r6
 8053958:	b087      	sub	sp, #28
 805395a:	42b5      	cmp	r5, r6
 805395c:	f105 0430 	add.w	r4, r5, #48	; 0x30
 8053960:	d30a      	bcc.n	8053978 <z_init_static_threads+0x28>
 8053962:	f7ff fd7f 	bl	8053464 <k_sched_lock>
 8053966:	4c1c      	ldr	r4, [pc, #112]	; (80539d8 <z_init_static_threads+0x88>)
 8053968:	4d1c      	ldr	r5, [pc, #112]	; (80539dc <z_init_static_threads+0x8c>)
 805396a:	42bc      	cmp	r4, r7
 805396c:	d321      	bcc.n	80539b2 <z_init_static_threads+0x62>
 805396e:	b007      	add	sp, #28
 8053970:	e8bd 40f0 	ldmia.w	sp!, {r4, r5, r6, r7, lr}
 8053974:	f7ff bdc4 	b.w	8053500 <k_sched_unlock>
 8053978:	f854 3c04 	ldr.w	r3, [r4, #-4]
 805397c:	9305      	str	r3, [sp, #20]
 805397e:	f854 3c10 	ldr.w	r3, [r4, #-16]
 8053982:	9304      	str	r3, [sp, #16]
 8053984:	f854 3c14 	ldr.w	r3, [r4, #-20]
 8053988:	9303      	str	r3, [sp, #12]
 805398a:	f854 3c18 	ldr.w	r3, [r4, #-24]
 805398e:	9302      	str	r3, [sp, #8]
 8053990:	f854 3c1c 	ldr.w	r3, [r4, #-28]
 8053994:	9301      	str	r3, [sp, #4]
 8053996:	f854 3c20 	ldr.w	r3, [r4, #-32]
 805399a:	9300      	str	r3, [sp, #0]
 805399c:	e954 230a 	ldrd	r2, r3, [r4, #-40]	; 0x28
 80539a0:	e954 010c 	ldrd	r0, r1, [r4, #-48]	; 0x30
 80539a4:	f7ff ff74 	bl	8053890 <z_setup_new_thread>
 80539a8:	f854 3c30 	ldr.w	r3, [r4, #-48]
 80539ac:	65dd      	str	r5, [r3, #92]	; 0x5c
 80539ae:	4625      	mov	r5, r4
 80539b0:	e7d3      	b.n	805395a <z_init_static_threads+0xa>
 80539b2:	6a62      	ldr	r2, [r4, #36]	; 0x24
 80539b4:	1c53      	adds	r3, r2, #1
 80539b6:	d004      	beq.n	80539c2 <z_init_static_threads+0x72>
 80539b8:	2a00      	cmp	r2, #0
 80539ba:	6820      	ldr	r0, [r4, #0]
 80539bc:	dc03      	bgt.n	80539c6 <z_init_static_threads+0x76>
 80539be:	f7ff fdd3 	bl	8053568 <z_sched_start>
 80539c2:	3430      	adds	r4, #48	; 0x30
 80539c4:	e7d1      	b.n	805396a <z_init_static_threads+0x1a>
 80539c6:	4629      	mov	r1, r5
 80539c8:	17d3      	asrs	r3, r2, #31
 80539ca:	3018      	adds	r0, #24
 80539cc:	f000 f846 	bl	8053a5c <z_add_timeout>
 80539d0:	e7f7      	b.n	80539c2 <z_init_static_threads+0x72>
 80539d2:	bf00      	nop
 80539d4:	200000fc 	.word	0x200000fc
 80539d8:	200000fc 	.word	0x200000fc
 80539dc:	08054c29 	.word	0x08054c29

080539e0 <elapsed>:
 80539e0:	4b03      	ldr	r3, [pc, #12]	; (80539f0 <elapsed+0x10>)
 80539e2:	681b      	ldr	r3, [r3, #0]
 80539e4:	b90b      	cbnz	r3, 80539ea <elapsed+0xa>
 80539e6:	f7fe bd5d 	b.w	80524a4 <z_clock_elapsed>
 80539ea:	2000      	movs	r0, #0
 80539ec:	4770      	bx	lr
 80539ee:	bf00      	nop
 80539f0:	2000187c 	.word	0x2000187c

080539f4 <remove_timeout>:
 80539f4:	b530      	push	{r4, r5, lr}
 80539f6:	6803      	ldr	r3, [r0, #0]
 80539f8:	b168      	cbz	r0, 8053a16 <remove_timeout+0x22>
 80539fa:	4a0a      	ldr	r2, [pc, #40]	; (8053a24 <remove_timeout+0x30>)
 80539fc:	6852      	ldr	r2, [r2, #4]
 80539fe:	4290      	cmp	r0, r2
 8053a00:	d009      	beq.n	8053a16 <remove_timeout+0x22>
 8053a02:	b143      	cbz	r3, 8053a16 <remove_timeout+0x22>
 8053a04:	e9d3 2104 	ldrd	r2, r1, [r3, #16]
 8053a08:	e9d0 4504 	ldrd	r4, r5, [r0, #16]
 8053a0c:	1912      	adds	r2, r2, r4
 8053a0e:	eb45 0101 	adc.w	r1, r5, r1
 8053a12:	e9c3 2104 	strd	r2, r1, [r3, #16]
 8053a16:	6842      	ldr	r2, [r0, #4]
 8053a18:	6013      	str	r3, [r2, #0]
 8053a1a:	605a      	str	r2, [r3, #4]
 8053a1c:	2300      	movs	r3, #0
 8053a1e:	e9c0 3300 	strd	r3, r3, [r0]
 8053a22:	bd30      	pop	{r4, r5, pc}
 8053a24:	20000030 	.word	0x20000030

08053a28 <next_timeout>:
 8053a28:	4b0a      	ldr	r3, [pc, #40]	; (8053a54 <next_timeout+0x2c>)
 8053a2a:	b510      	push	{r4, lr}
 8053a2c:	681c      	ldr	r4, [r3, #0]
 8053a2e:	429c      	cmp	r4, r3
 8053a30:	bf08      	it	eq
 8053a32:	2400      	moveq	r4, #0
 8053a34:	f7ff ffd4 	bl	80539e0 <elapsed>
 8053a38:	b144      	cbz	r4, 8053a4c <next_timeout+0x24>
 8053a3a:	6923      	ldr	r3, [r4, #16]
 8053a3c:	1a18      	subs	r0, r3, r0
 8053a3e:	4b06      	ldr	r3, [pc, #24]	; (8053a58 <next_timeout+0x30>)
 8053a40:	691b      	ldr	r3, [r3, #16]
 8053a42:	b113      	cbz	r3, 8053a4a <next_timeout+0x22>
 8053a44:	4298      	cmp	r0, r3
 8053a46:	bfa8      	it	ge
 8053a48:	4618      	movge	r0, r3
 8053a4a:	bd10      	pop	{r4, pc}
 8053a4c:	f06f 4000 	mvn.w	r0, #2147483648	; 0x80000000
 8053a50:	e7f5      	b.n	8053a3e <next_timeout+0x16>
 8053a52:	bf00      	nop
 8053a54:	20000030 	.word	0x20000030
 8053a58:	20001838 	.word	0x20001838

08053a5c <z_add_timeout>:
 8053a5c:	e92d 4ff7 	stmdb	sp!, {r0, r1, r2, r4, r5, r6, r7, r8, r9, sl, fp, lr}
 8053a60:	9101      	str	r1, [sp, #4]
 8053a62:	4619      	mov	r1, r3
 8053a64:	1c4b      	adds	r3, r1, #1
 8053a66:	bf08      	it	eq
 8053a68:	f1b2 3fff 	cmpeq.w	r2, #4294967295	; 0xffffffff
 8053a6c:	4682      	mov	sl, r0
 8053a6e:	d06b      	beq.n	8053b48 <z_add_timeout+0xec>
 8053a70:	f06f 0301 	mvn.w	r3, #1
 8053a74:	f04f 3bff 	mov.w	fp, #4294967295	; 0xffffffff
 8053a78:	1c54      	adds	r4, r2, #1
 8053a7a:	f141 0500 	adc.w	r5, r1, #0
 8053a7e:	ebb3 0804 	subs.w	r8, r3, r4
 8053a82:	eb6b 0905 	sbc.w	r9, fp, r5
 8053a86:	f1b8 0f00 	cmp.w	r8, #0
 8053a8a:	f179 0300 	sbcs.w	r3, r9, #0
 8053a8e:	db0f      	blt.n	8053ab0 <z_add_timeout+0x54>
 8053a90:	f7ff ffa6 	bl	80539e0 <elapsed>
 8053a94:	f06f 0301 	mvn.w	r3, #1
 8053a98:	4a32      	ldr	r2, [pc, #200]	; (8053b64 <z_add_timeout+0x108>)
 8053a9a:	e9d2 1c00 	ldrd	r1, ip, [r2]
 8053a9e:	1a5b      	subs	r3, r3, r1
 8053aa0:	eb6b 020c 	sbc.w	r2, fp, ip
 8053aa4:	1b1e      	subs	r6, r3, r4
 8053aa6:	eb62 0705 	sbc.w	r7, r2, r5
 8053aaa:	1a34      	subs	r4, r6, r0
 8053aac:	eb67 75e0 	sbc.w	r5, r7, r0, asr #31
 8053ab0:	9b01      	ldr	r3, [sp, #4]
 8053ab2:	f8ca 3008 	str.w	r3, [sl, #8]
 8053ab6:	f04f 0320 	mov.w	r3, #32
 8053aba:	f3ef 8611 	mrs	r6, BASEPRI
 8053abe:	f383 8811 	msr	BASEPRI, r3
 8053ac2:	f3bf 8f6f 	isb	sy
 8053ac6:	f7ff ff8b 	bl	80539e0 <elapsed>
 8053aca:	2c01      	cmp	r4, #1
 8053acc:	f175 0300 	sbcs.w	r3, r5, #0
 8053ad0:	bfbc      	itt	lt
 8053ad2:	2401      	movlt	r4, #1
 8053ad4:	2500      	movlt	r5, #0
 8053ad6:	4b24      	ldr	r3, [pc, #144]	; (8053b68 <z_add_timeout+0x10c>)
 8053ad8:	1824      	adds	r4, r4, r0
 8053ada:	681a      	ldr	r2, [r3, #0]
 8053adc:	eb45 75e0 	adc.w	r5, r5, r0, asr #31
 8053ae0:	429a      	cmp	r2, r3
 8053ae2:	e9ca 4504 	strd	r4, r5, [sl, #16]
 8053ae6:	d001      	beq.n	8053aec <z_add_timeout+0x90>
 8053ae8:	685f      	ldr	r7, [r3, #4]
 8053aea:	b952      	cbnz	r2, 8053b02 <z_add_timeout+0xa6>
 8053aec:	685a      	ldr	r2, [r3, #4]
 8053aee:	f8ca 3000 	str.w	r3, [sl]
 8053af2:	f8ca 2004 	str.w	r2, [sl, #4]
 8053af6:	685a      	ldr	r2, [r3, #4]
 8053af8:	f8c2 a000 	str.w	sl, [r2]
 8053afc:	f8c3 a004 	str.w	sl, [r3, #4]
 8053b00:	e014      	b.n	8053b2c <z_add_timeout+0xd0>
 8053b02:	e9d2 8904 	ldrd	r8, r9, [r2, #16]
 8053b06:	e9da 4504 	ldrd	r4, r5, [sl, #16]
 8053b0a:	454d      	cmp	r5, r9
 8053b0c:	bf08      	it	eq
 8053b0e:	4544      	cmpeq	r4, r8
 8053b10:	d21d      	bcs.n	8053b4e <z_add_timeout+0xf2>
 8053b12:	ebb8 0004 	subs.w	r0, r8, r4
 8053b16:	eb69 0105 	sbc.w	r1, r9, r5
 8053b1a:	e9c2 0104 	strd	r0, r1, [r2, #16]
 8053b1e:	6851      	ldr	r1, [r2, #4]
 8053b20:	e9ca 2100 	strd	r2, r1, [sl]
 8053b24:	f8c1 a000 	str.w	sl, [r1]
 8053b28:	f8c2 a004 	str.w	sl, [r2, #4]
 8053b2c:	681a      	ldr	r2, [r3, #0]
 8053b2e:	429a      	cmp	r2, r3
 8053b30:	d006      	beq.n	8053b40 <z_add_timeout+0xe4>
 8053b32:	4592      	cmp	sl, r2
 8053b34:	d104      	bne.n	8053b40 <z_add_timeout+0xe4>
 8053b36:	f7ff ff77 	bl	8053a28 <next_timeout>
 8053b3a:	2100      	movs	r1, #0
 8053b3c:	f7fe fc52 	bl	80523e4 <z_clock_set_timeout>
 8053b40:	f386 8811 	msr	BASEPRI, r6
 8053b44:	f3bf 8f6f 	isb	sy
 8053b48:	b003      	add	sp, #12
 8053b4a:	e8bd 8ff0 	ldmia.w	sp!, {r4, r5, r6, r7, r8, r9, sl, fp, pc}
 8053b4e:	ebb4 0008 	subs.w	r0, r4, r8
 8053b52:	eb65 0109 	sbc.w	r1, r5, r9
 8053b56:	42ba      	cmp	r2, r7
 8053b58:	e9ca 0104 	strd	r0, r1, [sl, #16]
 8053b5c:	d0c6      	beq.n	8053aec <z_add_timeout+0x90>
 8053b5e:	6812      	ldr	r2, [r2, #0]
 8053b60:	e7c3      	b.n	8053aea <z_add_timeout+0x8e>
 8053b62:	bf00      	nop
 8053b64:	20000350 	.word	0x20000350
 8053b68:	20000030 	.word	0x20000030

08053b6c <z_clock_announce>:
 8053b6c:	e92d 4ff7 	stmdb	sp!, {r0, r1, r2, r4, r5, r6, r7, r8, r9, sl, fp, lr}
 8053b70:	4606      	mov	r6, r0
 8053b72:	f7ff fd43 	bl	80535fc <z_time_slice>
 8053b76:	f04f 0320 	mov.w	r3, #32
 8053b7a:	f3ef 8411 	mrs	r4, BASEPRI
 8053b7e:	f383 8811 	msr	BASEPRI, r3
 8053b82:	f3bf 8f6f 	isb	sy
 8053b86:	f8df a0b0 	ldr.w	sl, [pc, #176]	; 8053c38 <z_clock_announce+0xcc>
 8053b8a:	4d2a      	ldr	r5, [pc, #168]	; (8053c34 <z_clock_announce+0xc8>)
 8053b8c:	4651      	mov	r1, sl
 8053b8e:	f8df b0ac 	ldr.w	fp, [pc, #172]	; 8053c3c <z_clock_announce+0xd0>
 8053b92:	602e      	str	r6, [r5, #0]
 8053b94:	f8d5 c000 	ldr.w	ip, [r5]
 8053b98:	f8db 0000 	ldr.w	r0, [fp]
 8053b9c:	4662      	mov	r2, ip
 8053b9e:	e9da 8900 	ldrd	r8, r9, [sl]
 8053ba2:	17d3      	asrs	r3, r2, #31
 8053ba4:	4558      	cmp	r0, fp
 8053ba6:	e9cd 2300 	strd	r2, r3, [sp]
 8053baa:	d00e      	beq.n	8053bca <z_clock_announce+0x5e>
 8053bac:	b168      	cbz	r0, 8053bca <z_clock_announce+0x5e>
 8053bae:	e9d0 6704 	ldrd	r6, r7, [r0, #16]
 8053bb2:	42bb      	cmp	r3, r7
 8053bb4:	bf08      	it	eq
 8053bb6:	45b4      	cmpeq	ip, r6
 8053bb8:	d21d      	bcs.n	8053bf6 <z_clock_announce+0x8a>
 8053bba:	9b00      	ldr	r3, [sp, #0]
 8053bbc:	ebb6 0c03 	subs.w	ip, r6, r3
 8053bc0:	9b01      	ldr	r3, [sp, #4]
 8053bc2:	eb67 0603 	sbc.w	r6, r7, r3
 8053bc6:	e9c0 c604 	strd	ip, r6, [r0, #16]
 8053bca:	2600      	movs	r6, #0
 8053bcc:	9b00      	ldr	r3, [sp, #0]
 8053bce:	602e      	str	r6, [r5, #0]
 8053bd0:	eb13 0208 	adds.w	r2, r3, r8
 8053bd4:	9b01      	ldr	r3, [sp, #4]
 8053bd6:	eb43 0309 	adc.w	r3, r3, r9
 8053bda:	e9c1 2300 	strd	r2, r3, [r1]
 8053bde:	f7ff ff23 	bl	8053a28 <next_timeout>
 8053be2:	4631      	mov	r1, r6
 8053be4:	f7fe fbfe 	bl	80523e4 <z_clock_set_timeout>
 8053be8:	f384 8811 	msr	BASEPRI, r4
 8053bec:	f3bf 8f6f 	isb	sy
 8053bf0:	b003      	add	sp, #12
 8053bf2:	e8bd 8ff0 	ldmia.w	sp!, {r4, r5, r6, r7, r8, r9, sl, fp, pc}
 8053bf6:	2200      	movs	r2, #0
 8053bf8:	2300      	movs	r3, #0
 8053bfa:	eb18 0806 	adds.w	r8, r8, r6
 8053bfe:	eb49 79e6 	adc.w	r9, r9, r6, asr #31
 8053c02:	e9c0 2304 	strd	r2, r3, [r0, #16]
 8053c06:	ebac 0606 	sub.w	r6, ip, r6
 8053c0a:	e9ca 8900 	strd	r8, r9, [sl]
 8053c0e:	602e      	str	r6, [r5, #0]
 8053c10:	f7ff fef0 	bl	80539f4 <remove_timeout>
 8053c14:	f384 8811 	msr	BASEPRI, r4
 8053c18:	f3bf 8f6f 	isb	sy
 8053c1c:	6883      	ldr	r3, [r0, #8]
 8053c1e:	4798      	blx	r3
 8053c20:	f04f 0320 	mov.w	r3, #32
 8053c24:	f3ef 8411 	mrs	r4, BASEPRI
 8053c28:	f383 8811 	msr	BASEPRI, r3
 8053c2c:	f3bf 8f6f 	isb	sy
 8053c30:	4901      	ldr	r1, [pc, #4]	; (8053c38 <z_clock_announce+0xcc>)
 8053c32:	e7af      	b.n	8053b94 <z_clock_announce+0x28>
 8053c34:	2000187c 	.word	0x2000187c
 8053c38:	20000350 	.word	0x20000350
 8053c3c:	20000030 	.word	0x20000030

08053c40 <statics_init>:
 8053c40:	b538      	push	{r3, r4, r5, lr}
 8053c42:	4c06      	ldr	r4, [pc, #24]	; (8053c5c <statics_init+0x1c>)
 8053c44:	4d06      	ldr	r5, [pc, #24]	; (8053c60 <statics_init+0x20>)
 8053c46:	42ac      	cmp	r4, r5
 8053c48:	d301      	bcc.n	8053c4e <statics_init+0xe>
 8053c4a:	2000      	movs	r0, #0
 8053c4c:	bd38      	pop	{r3, r4, r5, pc}
 8053c4e:	4620      	mov	r0, r4
 8053c50:	e9d4 1201 	ldrd	r1, r2, [r4, #4]
 8053c54:	f001 f88e 	bl	8054d74 <k_heap_init>
 8053c58:	3414      	adds	r4, #20
 8053c5a:	e7f4      	b.n	8053c46 <statics_init+0x6>
 8053c5c:	200001a4 	.word	0x200001a4
 8053c60:	200001b8 	.word	0x200001b8

08053c64 <psa_framework_version>:
 8053c64:	2300      	movs	r3, #0
 8053c66:	b507      	push	{r0, r1, r2, lr}
 8053c68:	461a      	mov	r2, r3
 8053c6a:	4619      	mov	r1, r3
 8053c6c:	9300      	str	r3, [sp, #0]
 8053c6e:	4803      	ldr	r0, [pc, #12]	; (8053c7c <psa_framework_version+0x18>)
 8053c70:	f7fd fe96 	bl	80519a0 <tfm_ns_interface_dispatch>
 8053c74:	b003      	add	sp, #12
 8053c76:	f85d fb04 	ldr.w	pc, [sp], #4
 8053c7a:	bf00      	nop
 8053c7c:	0c04ecc1 	.word	0x0c04ecc1

08053c80 <psa_version>:
 8053c80:	2300      	movs	r3, #0
 8053c82:	b507      	push	{r0, r1, r2, lr}
 8053c84:	4601      	mov	r1, r0
 8053c86:	461a      	mov	r2, r3
 8053c88:	9300      	str	r3, [sp, #0]
 8053c8a:	4803      	ldr	r0, [pc, #12]	; (8053c98 <psa_version+0x18>)
 8053c8c:	f7fd fe88 	bl	80519a0 <tfm_ns_interface_dispatch>
 8053c90:	b003      	add	sp, #12
 8053c92:	f85d fb04 	ldr.w	pc, [sp], #4
 8053c96:	bf00      	nop
 8053c98:	0c04ece1 	.word	0x0c04ece1

08053c9c <psa_connect>:
 8053c9c:	2300      	movs	r3, #0
 8053c9e:	b507      	push	{r0, r1, r2, lr}
 8053ca0:	460a      	mov	r2, r1
 8053ca2:	9300      	str	r3, [sp, #0]
 8053ca4:	4601      	mov	r1, r0
 8053ca6:	4803      	ldr	r0, [pc, #12]	; (8053cb4 <psa_connect+0x18>)
 8053ca8:	f7fd fe7a 	bl	80519a0 <tfm_ns_interface_dispatch>
 8053cac:	b003      	add	sp, #12
 8053cae:	f85d fb04 	ldr.w	pc, [sp], #4
 8053cb2:	bf00      	nop
 8053cb4:	0c04ed01 	.word	0x0c04ed01

08053cb8 <psa_call>:
 8053cb8:	b57f      	push	{r0, r1, r2, r3, r4, r5, r6, lr}
 8053cba:	e9cd 1303 	strd	r1, r3, [sp, #12]
 8053cbe:	9b09      	ldr	r3, [sp, #36]	; 0x24
 8053cc0:	4601      	mov	r1, r0
 8053cc2:	9305      	str	r3, [sp, #20]
 8053cc4:	9b08      	ldr	r3, [sp, #32]
 8053cc6:	4804      	ldr	r0, [pc, #16]	; (8053cd8 <psa_call+0x20>)
 8053cc8:	9300      	str	r3, [sp, #0]
 8053cca:	4613      	mov	r3, r2
 8053ccc:	aa03      	add	r2, sp, #12
 8053cce:	f7fd fe67 	bl	80519a0 <tfm_ns_interface_dispatch>
 8053cd2:	b007      	add	sp, #28
 8053cd4:	f85d fb04 	ldr.w	pc, [sp], #4
 8053cd8:	0c04ed19 	.word	0x0c04ed19

08053cdc <psa_close>:
 8053cdc:	2300      	movs	r3, #0
 8053cde:	b507      	push	{r0, r1, r2, lr}
 8053ce0:	4601      	mov	r1, r0
 8053ce2:	461a      	mov	r2, r3
 8053ce4:	9300      	str	r3, [sp, #0]
 8053ce6:	4803      	ldr	r0, [pc, #12]	; (8053cf4 <psa_close+0x18>)
 8053ce8:	f7fd fe5a 	bl	80519a0 <tfm_ns_interface_dispatch>
 8053cec:	b003      	add	sp, #12
 8053cee:	f85d fb04 	ldr.w	pc, [sp], #4
 8053cf2:	bf00      	nop
 8053cf4:	0c04ece9 	.word	0x0c04ece9

08053cf8 <arch_printk_char_out>:
 8053cf8:	2000      	movs	r0, #0
 8053cfa:	4770      	bx	lr

08053cfc <str_out>:
 8053cfc:	b530      	push	{r4, r5, lr}
 8053cfe:	688a      	ldr	r2, [r1, #8]
 8053d00:	680c      	ldr	r4, [r1, #0]
 8053d02:	1c55      	adds	r5, r2, #1
 8053d04:	b114      	cbz	r4, 8053d0c <str_out+0x10>
 8053d06:	684b      	ldr	r3, [r1, #4]
 8053d08:	4293      	cmp	r3, r2
 8053d0a:	dc01      	bgt.n	8053d10 <str_out+0x14>
 8053d0c:	608d      	str	r5, [r1, #8]
 8053d0e:	bd30      	pop	{r4, r5, pc}
 8053d10:	3b01      	subs	r3, #1
 8053d12:	4293      	cmp	r3, r2
 8053d14:	bf08      	it	eq
 8053d16:	2200      	moveq	r2, #0
 8053d18:	608d      	str	r5, [r1, #8]
 8053d1a:	bf0c      	ite	eq
 8053d1c:	54e2      	strbeq	r2, [r4, r3]
 8053d1e:	54a0      	strbne	r0, [r4, r2]
 8053d20:	e7f5      	b.n	8053d0e <str_out+0x12>

08053d22 <printk>:
 8053d22:	b40f      	push	{r0, r1, r2, r3}
 8053d24:	b507      	push	{r0, r1, r2, lr}
 8053d26:	a904      	add	r1, sp, #16
 8053d28:	f851 0b04 	ldr.w	r0, [r1], #4
 8053d2c:	9101      	str	r1, [sp, #4]
 8053d2e:	f7fe f8bf 	bl	8051eb0 <vprintk>
 8053d32:	b003      	add	sp, #12
 8053d34:	f85d eb04 	ldr.w	lr, [sp], #4
 8053d38:	b004      	add	sp, #16
 8053d3a:	4770      	bx	lr

08053d3c <snprintk>:
 8053d3c:	b40c      	push	{r2, r3}
 8053d3e:	b507      	push	{r0, r1, r2, lr}
 8053d40:	ab04      	add	r3, sp, #16
 8053d42:	f853 2b04 	ldr.w	r2, [r3], #4
 8053d46:	9301      	str	r3, [sp, #4]
 8053d48:	f7fe f8c0 	bl	8051ecc <vsnprintk>
 8053d4c:	b003      	add	sp, #12
 8053d4e:	f85d eb04 	ldr.w	lr, [sp], #4
 8053d52:	b002      	add	sp, #8
 8053d54:	4770      	bx	lr

08053d56 <set_child>:
 8053d56:	b109      	cbz	r1, 8053d5c <set_child+0x6>
 8053d58:	6042      	str	r2, [r0, #4]
 8053d5a:	4770      	bx	lr
 8053d5c:	6803      	ldr	r3, [r0, #0]
 8053d5e:	f003 0301 	and.w	r3, r3, #1
 8053d62:	431a      	orrs	r2, r3
 8053d64:	6002      	str	r2, [r0, #0]
 8053d66:	4770      	bx	lr

08053d68 <find_and_stack>:
 8053d68:	b5f8      	push	{r3, r4, r5, r6, r7, lr}
 8053d6a:	4606      	mov	r6, r0
 8053d6c:	460d      	mov	r5, r1
 8053d6e:	4614      	mov	r4, r2
 8053d70:	2701      	movs	r7, #1
 8053d72:	6803      	ldr	r3, [r0, #0]
 8053d74:	6013      	str	r3, [r2, #0]
 8053d76:	f854 1b04 	ldr.w	r1, [r4], #4
 8053d7a:	42a9      	cmp	r1, r5
 8053d7c:	d101      	bne.n	8053d82 <find_and_stack+0x1a>
 8053d7e:	4638      	mov	r0, r7
 8053d80:	bdf8      	pop	{r3, r4, r5, r6, r7, pc}
 8053d82:	6873      	ldr	r3, [r6, #4]
 8053d84:	4628      	mov	r0, r5
 8053d86:	4798      	blx	r3
 8053d88:	f854 3c04 	ldr.w	r3, [r4, #-4]
 8053d8c:	b928      	cbnz	r0, 8053d9a <find_and_stack+0x32>
 8053d8e:	685b      	ldr	r3, [r3, #4]
 8053d90:	2b00      	cmp	r3, #0
 8053d92:	d0f4      	beq.n	8053d7e <find_and_stack+0x16>
 8053d94:	3701      	adds	r7, #1
 8053d96:	6023      	str	r3, [r4, #0]
 8053d98:	e7ed      	b.n	8053d76 <find_and_stack+0xe>
 8053d9a:	681b      	ldr	r3, [r3, #0]
 8053d9c:	f023 0301 	bic.w	r3, r3, #1
 8053da0:	e7f6      	b.n	8053d90 <find_and_stack+0x28>

08053da2 <rotate>:
 8053da2:	e92d 4ff7 	stmdb	sp!, {r0, r1, r2, r4, r5, r6, r7, r8, r9, sl, fp, lr}
 8053da6:	f101 4780 	add.w	r7, r1, #1073741824	; 0x40000000
 8053daa:	3f02      	subs	r7, #2
 8053dac:	f850 6027 	ldr.w	r6, [r0, r7, lsl #2]
 8053db0:	00ba      	lsls	r2, r7, #2
 8053db2:	f102 0a04 	add.w	sl, r2, #4
 8053db6:	f850 400a 	ldr.w	r4, [r0, sl]
 8053dba:	6873      	ldr	r3, [r6, #4]
 8053dbc:	4605      	mov	r5, r0
 8053dbe:	429c      	cmp	r4, r3
 8053dc0:	bf15      	itete	ne
 8053dc2:	6820      	ldrne	r0, [r4, #0]
 8053dc4:	f04f 0b01 	moveq.w	fp, #1
 8053dc8:	f04f 0b00 	movne.w	fp, #0
 8053dcc:	f8d4 9004 	ldreq.w	r9, [r4, #4]
 8053dd0:	bf18      	it	ne
 8053dd2:	f020 0901 	bicne.w	r9, r0, #1
 8053dd6:	429c      	cmp	r4, r3
 8053dd8:	bf13      	iteet	ne
 8053dda:	2301      	movne	r3, #1
 8053ddc:	2300      	moveq	r3, #0
 8053dde:	6820      	ldreq	r0, [r4, #0]
 8053de0:	f8d4 8004 	ldrne.w	r8, [r4, #4]
 8053de4:	bf08      	it	eq
 8053de6:	f020 0801 	biceq.w	r8, r0, #1
 8053dea:	2902      	cmp	r1, #2
 8053dec:	9301      	str	r3, [sp, #4]
 8053dee:	dd09      	ble.n	8053e04 <rotate+0x62>
 8053df0:	442a      	add	r2, r5
 8053df2:	f852 0c04 	ldr.w	r0, [r2, #-4]
 8053df6:	4622      	mov	r2, r4
 8053df8:	6841      	ldr	r1, [r0, #4]
 8053dfa:	1b8b      	subs	r3, r1, r6
 8053dfc:	4259      	negs	r1, r3
 8053dfe:	4159      	adcs	r1, r3
 8053e00:	f7ff ffa9 	bl	8053d56 <set_child>
 8053e04:	4620      	mov	r0, r4
 8053e06:	464a      	mov	r2, r9
 8053e08:	4659      	mov	r1, fp
 8053e0a:	f7ff ffa4 	bl	8053d56 <set_child>
 8053e0e:	4632      	mov	r2, r6
 8053e10:	9901      	ldr	r1, [sp, #4]
 8053e12:	f7ff ffa0 	bl	8053d56 <set_child>
 8053e16:	4642      	mov	r2, r8
 8053e18:	4659      	mov	r1, fp
 8053e1a:	4630      	mov	r0, r6
 8053e1c:	f7ff ff9b 	bl	8053d56 <set_child>
 8053e20:	f845 4027 	str.w	r4, [r5, r7, lsl #2]
 8053e24:	f845 600a 	str.w	r6, [r5, sl]
 8053e28:	b003      	add	sp, #12
 8053e2a:	e8bd 8ff0 	ldmia.w	sp!, {r4, r5, r6, r7, r8, r9, sl, fp, pc}

08053e2e <fix_missing_black>:
 8053e2e:	e92d 4ff7 	stmdb	sp!, {r0, r1, r2, r4, r5, r6, r7, r8, r9, sl, fp, lr}
 8053e32:	4606      	mov	r6, r0
 8053e34:	460f      	mov	r7, r1
 8053e36:	4692      	mov	sl, r2
 8053e38:	2f01      	cmp	r7, #1
 8053e3a:	dd56      	ble.n	8053eea <fix_missing_black+0xbc>
 8053e3c:	f107 4380 	add.w	r3, r7, #1073741824	; 0x40000000
 8053e40:	3b01      	subs	r3, #1
 8053e42:	eb06 0283 	add.w	r2, r6, r3, lsl #2
 8053e46:	f852 5c04 	ldr.w	r5, [r2, #-4]
 8053e4a:	f856 8023 	ldr.w	r8, [r6, r3, lsl #2]
 8053e4e:	f8d5 9004 	ldr.w	r9, [r5, #4]
 8053e52:	45c8      	cmp	r8, r9
 8053e54:	bf11      	iteee	ne
 8053e56:	464c      	movne	r4, r9
 8053e58:	682c      	ldreq	r4, [r5, #0]
 8053e5a:	f04f 0b01 	moveq.w	fp, #1
 8053e5e:	f024 0401 	biceq.w	r4, r4, #1
 8053e62:	6821      	ldr	r1, [r4, #0]
 8053e64:	bf18      	it	ne
 8053e66:	f04f 0b00 	movne.w	fp, #0
 8053e6a:	07c8      	lsls	r0, r1, #31
 8053e6c:	d41e      	bmi.n	8053eac <fix_missing_black+0x7e>
 8053e6e:	f846 4023 	str.w	r4, [r6, r3, lsl #2]
 8053e72:	4639      	mov	r1, r7
 8053e74:	4630      	mov	r0, r6
 8053e76:	9201      	str	r2, [sp, #4]
 8053e78:	9300      	str	r3, [sp, #0]
 8053e7a:	f7ff ff92 	bl	8053da2 <rotate>
 8053e7e:	6829      	ldr	r1, [r5, #0]
 8053e80:	9a01      	ldr	r2, [sp, #4]
 8053e82:	f021 0101 	bic.w	r1, r1, #1
 8053e86:	6029      	str	r1, [r5, #0]
 8053e88:	6821      	ldr	r1, [r4, #0]
 8053e8a:	9b00      	ldr	r3, [sp, #0]
 8053e8c:	f041 0101 	orr.w	r1, r1, #1
 8053e90:	6021      	str	r1, [r4, #0]
 8053e92:	f8c2 8004 	str.w	r8, [r2, #4]
 8053e96:	f856 5023 	ldr.w	r5, [r6, r3, lsl #2]
 8053e9a:	45c8      	cmp	r8, r9
 8053e9c:	bf0c      	ite	eq
 8053e9e:	682c      	ldreq	r4, [r5, #0]
 8053ea0:	686c      	ldrne	r4, [r5, #4]
 8053ea2:	f107 0701 	add.w	r7, r7, #1
 8053ea6:	bf08      	it	eq
 8053ea8:	f024 0401 	biceq.w	r4, r4, #1
 8053eac:	e9d4 3000 	ldrd	r3, r0, [r4]
 8053eb0:	f033 0301 	bics.w	r3, r3, #1
 8053eb4:	d002      	beq.n	8053ebc <fix_missing_black+0x8e>
 8053eb6:	681a      	ldr	r2, [r3, #0]
 8053eb8:	07d1      	lsls	r1, r2, #31
 8053eba:	d569      	bpl.n	8053f90 <fix_missing_black+0x162>
 8053ebc:	b110      	cbz	r0, 8053ec4 <fix_missing_black+0x96>
 8053ebe:	6802      	ldr	r2, [r0, #0]
 8053ec0:	07d2      	lsls	r2, r2, #31
 8053ec2:	d569      	bpl.n	8053f98 <fix_missing_black+0x16a>
 8053ec4:	45d0      	cmp	r8, sl
 8053ec6:	d104      	bne.n	8053ed2 <fix_missing_black+0xa4>
 8053ec8:	2200      	movs	r2, #0
 8053eca:	4659      	mov	r1, fp
 8053ecc:	4628      	mov	r0, r5
 8053ece:	f7ff ff42 	bl	8053d56 <set_child>
 8053ed2:	6823      	ldr	r3, [r4, #0]
 8053ed4:	f023 0301 	bic.w	r3, r3, #1
 8053ed8:	6023      	str	r3, [r4, #0]
 8053eda:	682b      	ldr	r3, [r5, #0]
 8053edc:	07d9      	lsls	r1, r3, #31
 8053ede:	d501      	bpl.n	8053ee4 <fix_missing_black+0xb6>
 8053ee0:	3f01      	subs	r7, #1
 8053ee2:	e7a9      	b.n	8053e38 <fix_missing_black+0xa>
 8053ee4:	f043 0301 	orr.w	r3, r3, #1
 8053ee8:	602b      	str	r3, [r5, #0]
 8053eea:	b003      	add	sp, #12
 8053eec:	e8bd 8ff0 	ldmia.w	sp!, {r4, r5, r6, r7, r8, r9, sl, fp, pc}
 8053ef0:	4601      	mov	r1, r0
 8053ef2:	bb19      	cbnz	r1, 8053f3c <fix_missing_black+0x10e>
 8053ef4:	45c8      	cmp	r8, r9
 8053ef6:	bf08      	it	eq
 8053ef8:	4603      	moveq	r3, r0
 8053efa:	f107 4280 	add.w	r2, r7, #1073741824	; 0x40000000
 8053efe:	3a01      	subs	r2, #1
 8053f00:	eb06 0182 	add.w	r1, r6, r2, lsl #2
 8053f04:	f846 4022 	str.w	r4, [r6, r2, lsl #2]
 8053f08:	4630      	mov	r0, r6
 8053f0a:	604b      	str	r3, [r1, #4]
 8053f0c:	1c79      	adds	r1, r7, #1
 8053f0e:	9201      	str	r2, [sp, #4]
 8053f10:	9300      	str	r3, [sp, #0]
 8053f12:	f7ff ff46 	bl	8053da2 <rotate>
 8053f16:	6821      	ldr	r1, [r4, #0]
 8053f18:	9b00      	ldr	r3, [sp, #0]
 8053f1a:	f021 0101 	bic.w	r1, r1, #1
 8053f1e:	6021      	str	r1, [r4, #0]
 8053f20:	6819      	ldr	r1, [r3, #0]
 8053f22:	9a01      	ldr	r2, [sp, #4]
 8053f24:	f041 0101 	orr.w	r1, r1, #1
 8053f28:	45c8      	cmp	r8, r9
 8053f2a:	f856 4022 	ldr.w	r4, [r6, r2, lsl #2]
 8053f2e:	6019      	str	r1, [r3, #0]
 8053f30:	d02a      	beq.n	8053f88 <fix_missing_black+0x15a>
 8053f32:	6861      	ldr	r1, [r4, #4]
 8053f34:	f846 8022 	str.w	r8, [r6, r2, lsl #2]
 8053f38:	e003      	b.n	8053f42 <fix_missing_black+0x114>
 8053f3a:	4601      	mov	r1, r0
 8053f3c:	680a      	ldr	r2, [r1, #0]
 8053f3e:	07d2      	lsls	r2, r2, #31
 8053f40:	d4d8      	bmi.n	8053ef4 <fix_missing_black+0xc6>
 8053f42:	6823      	ldr	r3, [r4, #0]
 8053f44:	682a      	ldr	r2, [r5, #0]
 8053f46:	f023 0301 	bic.w	r3, r3, #1
 8053f4a:	f002 0201 	and.w	r2, r2, #1
 8053f4e:	4313      	orrs	r3, r2
 8053f50:	6023      	str	r3, [r4, #0]
 8053f52:	682b      	ldr	r3, [r5, #0]
 8053f54:	4630      	mov	r0, r6
 8053f56:	f043 0301 	orr.w	r3, r3, #1
 8053f5a:	602b      	str	r3, [r5, #0]
 8053f5c:	680b      	ldr	r3, [r1, #0]
 8053f5e:	f043 0301 	orr.w	r3, r3, #1
 8053f62:	600b      	str	r3, [r1, #0]
 8053f64:	f107 4380 	add.w	r3, r7, #1073741824	; 0x40000000
 8053f68:	3b01      	subs	r3, #1
 8053f6a:	4639      	mov	r1, r7
 8053f6c:	f846 4023 	str.w	r4, [r6, r3, lsl #2]
 8053f70:	f7ff ff17 	bl	8053da2 <rotate>
 8053f74:	45d0      	cmp	r8, sl
 8053f76:	d1b8      	bne.n	8053eea <fix_missing_black+0xbc>
 8053f78:	2200      	movs	r2, #0
 8053f7a:	4659      	mov	r1, fp
 8053f7c:	4628      	mov	r0, r5
 8053f7e:	b003      	add	sp, #12
 8053f80:	e8bd 4ff0 	ldmia.w	sp!, {r4, r5, r6, r7, r8, r9, sl, fp, lr}
 8053f84:	f7ff bee7 	b.w	8053d56 <set_child>
 8053f88:	6821      	ldr	r1, [r4, #0]
 8053f8a:	f021 0101 	bic.w	r1, r1, #1
 8053f8e:	e7d1      	b.n	8053f34 <fix_missing_black+0x106>
 8053f90:	45c8      	cmp	r8, r9
 8053f92:	d1ad      	bne.n	8053ef0 <fix_missing_black+0xc2>
 8053f94:	4619      	mov	r1, r3
 8053f96:	e7d1      	b.n	8053f3c <fix_missing_black+0x10e>
 8053f98:	45c8      	cmp	r8, r9
 8053f9a:	d1ce      	bne.n	8053f3a <fix_missing_black+0x10c>
 8053f9c:	4619      	mov	r1, r3
 8053f9e:	e7a8      	b.n	8053ef2 <fix_missing_black+0xc4>

08053fa0 <stack_left_limb>:
 8053fa0:	b510      	push	{r4, lr}
 8053fa2:	2400      	movs	r4, #0
 8053fa4:	688b      	ldr	r3, [r1, #8]
 8053fa6:	680a      	ldr	r2, [r1, #0]
 8053fa8:	3301      	adds	r3, #1
 8053faa:	608b      	str	r3, [r1, #8]
 8053fac:	f842 0023 	str.w	r0, [r2, r3, lsl #2]
 8053fb0:	684a      	ldr	r2, [r1, #4]
 8053fb2:	54d4      	strb	r4, [r2, r3]
 8053fb4:	2401      	movs	r4, #1
 8053fb6:	6800      	ldr	r0, [r0, #0]
 8053fb8:	688b      	ldr	r3, [r1, #8]
 8053fba:	f030 0001 	bics.w	r0, r0, #1
 8053fbe:	680a      	ldr	r2, [r1, #0]
 8053fc0:	d102      	bne.n	8053fc8 <stack_left_limb+0x28>
 8053fc2:	f852 0023 	ldr.w	r0, [r2, r3, lsl #2]
 8053fc6:	bd10      	pop	{r4, pc}
 8053fc8:	3301      	adds	r3, #1
 8053fca:	608b      	str	r3, [r1, #8]
 8053fcc:	f842 0023 	str.w	r0, [r2, r3, lsl #2]
 8053fd0:	684a      	ldr	r2, [r1, #4]
 8053fd2:	54d4      	strb	r4, [r2, r3]
 8053fd4:	e7ef      	b.n	8053fb6 <stack_left_limb+0x16>

08053fd6 <z_rb_get_minmax>:
 8053fd6:	6800      	ldr	r0, [r0, #0]
 8053fd8:	b110      	cbz	r0, 8053fe0 <z_rb_get_minmax+0xa>
 8053fda:	b121      	cbz	r1, 8053fe6 <z_rb_get_minmax+0x10>
 8053fdc:	6843      	ldr	r3, [r0, #4]
 8053fde:	b903      	cbnz	r3, 8053fe2 <z_rb_get_minmax+0xc>
 8053fe0:	4770      	bx	lr
 8053fe2:	4618      	mov	r0, r3
 8053fe4:	e7f8      	b.n	8053fd8 <z_rb_get_minmax+0x2>
 8053fe6:	6803      	ldr	r3, [r0, #0]
 8053fe8:	f023 0301 	bic.w	r3, r3, #1
 8053fec:	e7f7      	b.n	8053fde <z_rb_get_minmax+0x8>

08053fee <rb_insert>:
 8053fee:	e92d 4ff8 	stmdb	sp!, {r3, r4, r5, r6, r7, r8, r9, sl, fp, lr}
 8053ff2:	680b      	ldr	r3, [r1, #0]
 8053ff4:	4604      	mov	r4, r0
 8053ff6:	f003 0301 	and.w	r3, r3, #1
 8053ffa:	600b      	str	r3, [r1, #0]
 8053ffc:	2300      	movs	r3, #0
 8053ffe:	604b      	str	r3, [r1, #4]
 8054000:	6803      	ldr	r3, [r0, #0]
 8054002:	460e      	mov	r6, r1
 8054004:	46e9      	mov	r9, sp
 8054006:	af00      	add	r7, sp, #0
 8054008:	b933      	cbnz	r3, 8054018 <rb_insert+0x2a>
 805400a:	2301      	movs	r3, #1
 805400c:	6001      	str	r1, [r0, #0]
 805400e:	6083      	str	r3, [r0, #8]
 8054010:	600b      	str	r3, [r1, #0]
 8054012:	46bd      	mov	sp, r7
 8054014:	e8bd 8ff8 	ldmia.w	sp!, {r3, r4, r5, r6, r7, r8, r9, sl, fp, pc}
 8054018:	6883      	ldr	r3, [r0, #8]
 805401a:	009b      	lsls	r3, r3, #2
 805401c:	330b      	adds	r3, #11
 805401e:	f023 0307 	bic.w	r3, r3, #7
 8054022:	ebad 0d03 	sub.w	sp, sp, r3
 8054026:	466d      	mov	r5, sp
 8054028:	462a      	mov	r2, r5
 805402a:	f7ff fe9d 	bl	8053d68 <find_and_stack>
 805402e:	eb05 0b80 	add.w	fp, r5, r0, lsl #2
 8054032:	f85b ac04 	ldr.w	sl, [fp, #-4]
 8054036:	4680      	mov	r8, r0
 8054038:	4651      	mov	r1, sl
 805403a:	6863      	ldr	r3, [r4, #4]
 805403c:	4630      	mov	r0, r6
 805403e:	4798      	blx	r3
 8054040:	f080 0101 	eor.w	r1, r0, #1
 8054044:	4632      	mov	r2, r6
 8054046:	4650      	mov	r0, sl
 8054048:	b2c9      	uxtb	r1, r1
 805404a:	f7ff fe84 	bl	8053d56 <set_child>
 805404e:	6832      	ldr	r2, [r6, #0]
 8054050:	f108 0a01 	add.w	sl, r8, #1
 8054054:	f022 0201 	bic.w	r2, r2, #1
 8054058:	6032      	str	r2, [r6, #0]
 805405a:	f845 6028 	str.w	r6, [r5, r8, lsl #2]
 805405e:	465b      	mov	r3, fp
 8054060:	4656      	mov	r6, sl
 8054062:	2e01      	cmp	r6, #1
 8054064:	dc04      	bgt.n	8054070 <rb_insert+0x82>
 8054066:	682a      	ldr	r2, [r5, #0]
 8054068:	6813      	ldr	r3, [r2, #0]
 805406a:	f043 0301 	orr.w	r3, r3, #1
 805406e:	e04d      	b.n	805410c <rb_insert+0x11e>
 8054070:	f853 1c04 	ldr.w	r1, [r3, #-4]
 8054074:	f1a3 0b04 	sub.w	fp, r3, #4
 8054078:	680a      	ldr	r2, [r1, #0]
 805407a:	07d0      	lsls	r0, r2, #31
 805407c:	d447      	bmi.n	805410e <rb_insert+0x120>
 805407e:	f853 cc08 	ldr.w	ip, [r3, #-8]
 8054082:	f1a3 0808 	sub.w	r8, r3, #8
 8054086:	f8dc e004 	ldr.w	lr, [ip, #4]
 805408a:	4571      	cmp	r1, lr
 805408c:	bf12      	itee	ne
 805408e:	4670      	movne	r0, lr
 8054090:	f8dc 3000 	ldreq.w	r3, [ip]
 8054094:	f023 0001 	biceq.w	r0, r3, #1
 8054098:	b198      	cbz	r0, 80540c2 <rb_insert+0xd4>
 805409a:	6802      	ldr	r2, [r0, #0]
 805409c:	4643      	mov	r3, r8
 805409e:	07d2      	lsls	r2, r2, #31
 80540a0:	d40f      	bmi.n	80540c2 <rb_insert+0xd4>
 80540a2:	f8dc 2000 	ldr.w	r2, [ip]
 80540a6:	3e02      	subs	r6, #2
 80540a8:	f022 0201 	bic.w	r2, r2, #1
 80540ac:	f8cc 2000 	str.w	r2, [ip]
 80540b0:	680a      	ldr	r2, [r1, #0]
 80540b2:	f042 0201 	orr.w	r2, r2, #1
 80540b6:	600a      	str	r2, [r1, #0]
 80540b8:	6802      	ldr	r2, [r0, #0]
 80540ba:	f042 0201 	orr.w	r2, r2, #1
 80540be:	6002      	str	r2, [r0, #0]
 80540c0:	e7cf      	b.n	8054062 <rb_insert+0x74>
 80540c2:	f106 4380 	add.w	r3, r6, #1073741824	; 0x40000000
 80540c6:	3b01      	subs	r3, #1
 80540c8:	f855 3023 	ldr.w	r3, [r5, r3, lsl #2]
 80540cc:	684a      	ldr	r2, [r1, #4]
 80540ce:	eba1 000e 	sub.w	r0, r1, lr
 80540d2:	4241      	negs	r1, r0
 80540d4:	eba3 0c02 	sub.w	ip, r3, r2
 80540d8:	4141      	adcs	r1, r0
 80540da:	f1dc 0300 	rsbs	r3, ip, #0
 80540de:	eb43 030c 	adc.w	r3, r3, ip
 80540e2:	4299      	cmp	r1, r3
 80540e4:	d003      	beq.n	80540ee <rb_insert+0x100>
 80540e6:	4631      	mov	r1, r6
 80540e8:	4628      	mov	r0, r5
 80540ea:	f7ff fe5a 	bl	8053da2 <rotate>
 80540ee:	4628      	mov	r0, r5
 80540f0:	1e71      	subs	r1, r6, #1
 80540f2:	f7ff fe56 	bl	8053da2 <rotate>
 80540f6:	f8d8 2000 	ldr.w	r2, [r8]
 80540fa:	6813      	ldr	r3, [r2, #0]
 80540fc:	f043 0301 	orr.w	r3, r3, #1
 8054100:	6013      	str	r3, [r2, #0]
 8054102:	f8db 2000 	ldr.w	r2, [fp]
 8054106:	6813      	ldr	r3, [r2, #0]
 8054108:	f023 0301 	bic.w	r3, r3, #1
 805410c:	6013      	str	r3, [r2, #0]
 805410e:	68a3      	ldr	r3, [r4, #8]
 8054110:	4553      	cmp	r3, sl
 8054112:	682b      	ldr	r3, [r5, #0]
 8054114:	bfb8      	it	lt
 8054116:	f8c4 a008 	strlt.w	sl, [r4, #8]
 805411a:	6023      	str	r3, [r4, #0]
 805411c:	46cd      	mov	sp, r9
 805411e:	e778      	b.n	8054012 <rb_insert+0x24>

08054120 <rb_remove>:
 8054120:	e92d 4ff0 	stmdb	sp!, {r4, r5, r6, r7, r8, r9, sl, fp, lr}
 8054124:	b083      	sub	sp, #12
 8054126:	6883      	ldr	r3, [r0, #8]
 8054128:	af00      	add	r7, sp, #0
 805412a:	009b      	lsls	r3, r3, #2
 805412c:	330b      	adds	r3, #11
 805412e:	f023 0307 	bic.w	r3, r3, #7
 8054132:	46eb      	mov	fp, sp
 8054134:	ebad 0d03 	sub.w	sp, sp, r3
 8054138:	46e8      	mov	r8, sp
 805413a:	466b      	mov	r3, sp
 805413c:	4642      	mov	r2, r8
 805413e:	089b      	lsrs	r3, r3, #2
 8054140:	460c      	mov	r4, r1
 8054142:	4681      	mov	r9, r0
 8054144:	607b      	str	r3, [r7, #4]
 8054146:	f7ff fe0f 	bl	8053d68 <find_and_stack>
 805414a:	eb08 0a80 	add.w	sl, r8, r0, lsl #2
 805414e:	f85a 1c04 	ldr.w	r1, [sl, #-4]
 8054152:	4606      	mov	r6, r0
 8054154:	42a1      	cmp	r1, r4
 8054156:	ea4f 0280 	mov.w	r2, r0, lsl #2
 805415a:	d161      	bne.n	8054220 <rb_remove+0x100>
 805415c:	6825      	ldr	r5, [r4, #0]
 805415e:	f035 0501 	bics.w	r5, r5, #1
 8054162:	d04f      	beq.n	8054204 <rb_remove+0xe4>
 8054164:	6861      	ldr	r1, [r4, #4]
 8054166:	2900      	cmp	r1, #0
 8054168:	d04c      	beq.n	8054204 <rb_remove+0xe4>
 805416a:	2801      	cmp	r0, #1
 805416c:	bfd8      	it	le
 805416e:	2000      	movle	r0, #0
 8054170:	687b      	ldr	r3, [r7, #4]
 8054172:	bfc8      	it	gt
 8054174:	f85a 0c08 	ldrgt.w	r0, [sl, #-8]
 8054178:	f842 5023 	str.w	r5, [r2, r3, lsl #2]
 805417c:	1c73      	adds	r3, r6, #1
 805417e:	686a      	ldr	r2, [r5, #4]
 8054180:	461e      	mov	r6, r3
 8054182:	2a00      	cmp	r2, #0
 8054184:	d151      	bne.n	805422a <rb_remove+0x10a>
 8054186:	eb08 0383 	add.w	r3, r8, r3, lsl #2
 805418a:	607b      	str	r3, [r7, #4]
 805418c:	f853 3c08 	ldr.w	r3, [r3, #-8]
 8054190:	2800      	cmp	r0, #0
 8054192:	d04f      	beq.n	8054234 <rb_remove+0x114>
 8054194:	6841      	ldr	r1, [r0, #4]
 8054196:	462a      	mov	r2, r5
 8054198:	eba1 0c04 	sub.w	ip, r1, r4
 805419c:	f1dc 0100 	rsbs	r1, ip, #0
 80541a0:	eb41 010c 	adc.w	r1, r1, ip
 80541a4:	603b      	str	r3, [r7, #0]
 80541a6:	f7ff fdd6 	bl	8053d56 <set_child>
 80541aa:	683b      	ldr	r3, [r7, #0]
 80541ac:	429c      	cmp	r4, r3
 80541ae:	d144      	bne.n	805423a <rb_remove+0x11a>
 80541b0:	682a      	ldr	r2, [r5, #0]
 80541b2:	6823      	ldr	r3, [r4, #0]
 80541b4:	f022 0201 	bic.w	r2, r2, #1
 80541b8:	f003 0301 	and.w	r3, r3, #1
 80541bc:	4313      	orrs	r3, r2
 80541be:	6023      	str	r3, [r4, #0]
 80541c0:	682b      	ldr	r3, [r5, #0]
 80541c2:	f003 0301 	and.w	r3, r3, #1
 80541c6:	4323      	orrs	r3, r4
 80541c8:	602b      	str	r3, [r5, #0]
 80541ca:	6863      	ldr	r3, [r4, #4]
 80541cc:	687a      	ldr	r2, [r7, #4]
 80541ce:	606b      	str	r3, [r5, #4]
 80541d0:	2300      	movs	r3, #0
 80541d2:	f852 2c04 	ldr.w	r2, [r2, #-4]
 80541d6:	6063      	str	r3, [r4, #4]
 80541d8:	f85a 3c04 	ldr.w	r3, [sl, #-4]
 80541dc:	f84a 2c04 	str.w	r2, [sl, #-4]
 80541e0:	687a      	ldr	r2, [r7, #4]
 80541e2:	6821      	ldr	r1, [r4, #0]
 80541e4:	f842 3c04 	str.w	r3, [r2, #-4]
 80541e8:	682a      	ldr	r2, [r5, #0]
 80541ea:	f021 0301 	bic.w	r3, r1, #1
 80541ee:	f002 0201 	and.w	r2, r2, #1
 80541f2:	431a      	orrs	r2, r3
 80541f4:	6022      	str	r2, [r4, #0]
 80541f6:	682b      	ldr	r3, [r5, #0]
 80541f8:	f001 0101 	and.w	r1, r1, #1
 80541fc:	f023 0301 	bic.w	r3, r3, #1
 8054200:	430b      	orrs	r3, r1
 8054202:	602b      	str	r3, [r5, #0]
 8054204:	6823      	ldr	r3, [r4, #0]
 8054206:	f033 0501 	bics.w	r5, r3, #1
 805420a:	bf08      	it	eq
 805420c:	6865      	ldreq	r5, [r4, #4]
 805420e:	2e01      	cmp	r6, #1
 8054210:	dc2d      	bgt.n	805426e <rb_remove+0x14e>
 8054212:	f8c9 5000 	str.w	r5, [r9]
 8054216:	b33d      	cbz	r5, 8054268 <rb_remove+0x148>
 8054218:	682b      	ldr	r3, [r5, #0]
 805421a:	f043 0301 	orr.w	r3, r3, #1
 805421e:	602b      	str	r3, [r5, #0]
 8054220:	46dd      	mov	sp, fp
 8054222:	370c      	adds	r7, #12
 8054224:	46bd      	mov	sp, r7
 8054226:	e8bd 8ff0 	ldmia.w	sp!, {r4, r5, r6, r7, r8, r9, sl, fp, pc}
 805422a:	f848 2023 	str.w	r2, [r8, r3, lsl #2]
 805422e:	4615      	mov	r5, r2
 8054230:	3301      	adds	r3, #1
 8054232:	e7a4      	b.n	805417e <rb_remove+0x5e>
 8054234:	f8c9 5000 	str.w	r5, [r9]
 8054238:	e7b8      	b.n	80541ac <rb_remove+0x8c>
 805423a:	6859      	ldr	r1, [r3, #4]
 805423c:	4622      	mov	r2, r4
 805423e:	1b48      	subs	r0, r1, r5
 8054240:	4241      	negs	r1, r0
 8054242:	4141      	adcs	r1, r0
 8054244:	4618      	mov	r0, r3
 8054246:	f7ff fd86 	bl	8053d56 <set_child>
 805424a:	6822      	ldr	r2, [r4, #0]
 805424c:	6829      	ldr	r1, [r5, #0]
 805424e:	f002 0301 	and.w	r3, r2, #1
 8054252:	f021 0101 	bic.w	r1, r1, #1
 8054256:	430b      	orrs	r3, r1
 8054258:	6023      	str	r3, [r4, #0]
 805425a:	682b      	ldr	r3, [r5, #0]
 805425c:	f022 0201 	bic.w	r2, r2, #1
 8054260:	f003 0301 	and.w	r3, r3, #1
 8054264:	4313      	orrs	r3, r2
 8054266:	e7af      	b.n	80541c8 <rb_remove+0xa8>
 8054268:	f8c9 5008 	str.w	r5, [r9, #8]
 805426c:	e7d8      	b.n	8054220 <rb_remove+0x100>
 805426e:	eb08 0a86 	add.w	sl, r8, r6, lsl #2
 8054272:	f85a 0c08 	ldr.w	r0, [sl, #-8]
 8054276:	b99d      	cbnz	r5, 80542a0 <rb_remove+0x180>
 8054278:	07db      	lsls	r3, r3, #31
 805427a:	d505      	bpl.n	8054288 <rb_remove+0x168>
 805427c:	4622      	mov	r2, r4
 805427e:	4631      	mov	r1, r6
 8054280:	4640      	mov	r0, r8
 8054282:	f7ff fdd4 	bl	8053e2e <fix_missing_black>
 8054286:	e006      	b.n	8054296 <rb_remove+0x176>
 8054288:	6841      	ldr	r1, [r0, #4]
 805428a:	462a      	mov	r2, r5
 805428c:	1b0c      	subs	r4, r1, r4
 805428e:	4261      	negs	r1, r4
 8054290:	4161      	adcs	r1, r4
 8054292:	f7ff fd60 	bl	8053d56 <set_child>
 8054296:	f8d8 3000 	ldr.w	r3, [r8]
 805429a:	f8c9 3000 	str.w	r3, [r9]
 805429e:	e7bf      	b.n	8054220 <rb_remove+0x100>
 80542a0:	6841      	ldr	r1, [r0, #4]
 80542a2:	462a      	mov	r2, r5
 80542a4:	1b0b      	subs	r3, r1, r4
 80542a6:	4259      	negs	r1, r3
 80542a8:	4159      	adcs	r1, r3
 80542aa:	f7ff fd54 	bl	8053d56 <set_child>
 80542ae:	6823      	ldr	r3, [r4, #0]
 80542b0:	07da      	lsls	r2, r3, #31
 80542b2:	d504      	bpl.n	80542be <rb_remove+0x19e>
 80542b4:	682a      	ldr	r2, [r5, #0]
 80542b6:	43d2      	mvns	r2, r2
 80542b8:	f012 0201 	ands.w	r2, r2, #1
 80542bc:	d004      	beq.n	80542c8 <rb_remove+0x1a8>
 80542be:	682b      	ldr	r3, [r5, #0]
 80542c0:	f043 0301 	orr.w	r3, r3, #1
 80542c4:	602b      	str	r3, [r5, #0]
 80542c6:	e7e6      	b.n	8054296 <rb_remove+0x176>
 80542c8:	f84a 5c04 	str.w	r5, [sl, #-4]
 80542cc:	e7d7      	b.n	805427e <rb_remove+0x15e>

080542ce <z_rb_foreach_next>:
 80542ce:	6800      	ldr	r0, [r0, #0]
 80542d0:	460b      	mov	r3, r1
 80542d2:	b430      	push	{r4, r5}
 80542d4:	b910      	cbnz	r0, 80542dc <z_rb_foreach_next+0xe>
 80542d6:	2000      	movs	r0, #0
 80542d8:	bc30      	pop	{r4, r5}
 80542da:	4770      	bx	lr
 80542dc:	688a      	ldr	r2, [r1, #8]
 80542de:	1c54      	adds	r4, r2, #1
 80542e0:	d102      	bne.n	80542e8 <z_rb_foreach_next+0x1a>
 80542e2:	bc30      	pop	{r4, r5}
 80542e4:	f7ff be5c 	b.w	8053fa0 <stack_left_limb>
 80542e8:	680c      	ldr	r4, [r1, #0]
 80542ea:	0095      	lsls	r5, r2, #2
 80542ec:	f854 0022 	ldr.w	r0, [r4, r2, lsl #2]
 80542f0:	6840      	ldr	r0, [r0, #4]
 80542f2:	2800      	cmp	r0, #0
 80542f4:	d1f5      	bne.n	80542e2 <z_rb_foreach_next+0x14>
 80542f6:	6848      	ldr	r0, [r1, #4]
 80542f8:	5c81      	ldrb	r1, [r0, r2]
 80542fa:	b131      	cbz	r1, 805430a <z_rb_foreach_next+0x3c>
 80542fc:	3a01      	subs	r2, #1
 80542fe:	442c      	add	r4, r5
 8054300:	f854 0c04 	ldr.w	r0, [r4, #-4]
 8054304:	609a      	str	r2, [r3, #8]
 8054306:	e7e7      	b.n	80542d8 <z_rb_foreach_next+0xa>
 8054308:	609a      	str	r2, [r3, #8]
 805430a:	6899      	ldr	r1, [r3, #8]
 805430c:	2900      	cmp	r1, #0
 805430e:	f101 32ff 	add.w	r2, r1, #4294967295	; 0xffffffff
 8054312:	dd02      	ble.n	805431a <z_rb_foreach_next+0x4c>
 8054314:	5c41      	ldrb	r1, [r0, r1]
 8054316:	2900      	cmp	r1, #0
 8054318:	d0f6      	beq.n	8054308 <z_rb_foreach_next+0x3a>
 805431a:	2a00      	cmp	r2, #0
 805431c:	609a      	str	r2, [r3, #8]
 805431e:	dbda      	blt.n	80542d6 <z_rb_foreach_next+0x8>
 8054320:	f854 0022 	ldr.w	r0, [r4, r2, lsl #2]
 8054324:	e7d8      	b.n	80542d8 <z_rb_foreach_next+0xa>

08054326 <z_thread_entry>:
 8054326:	4604      	mov	r4, r0
 8054328:	b508      	push	{r3, lr}
 805432a:	4608      	mov	r0, r1
 805432c:	4611      	mov	r1, r2
 805432e:	461a      	mov	r2, r3
 8054330:	47a0      	blx	r4
 8054332:	f7ff fa89 	bl	8053848 <z_impl_k_current_get>
 8054336:	f7fe fb0f 	bl	8052958 <z_impl_k_thread_abort>

0805433a <chunk_field>:
 805433a:	6883      	ldr	r3, [r0, #8]
 805433c:	eb00 01c1 	add.w	r1, r0, r1, lsl #3
 8054340:	f5b3 4f00 	cmp.w	r3, #32768	; 0x8000
 8054344:	bf2c      	ite	cs
 8054346:	f851 0022 	ldrcs.w	r0, [r1, r2, lsl #2]
 805434a:	f831 0012 	ldrhcc.w	r0, [r1, r2, lsl #1]
 805434e:	4770      	bx	lr

08054350 <chunk_set>:
 8054350:	eb00 01c1 	add.w	r1, r0, r1, lsl #3
 8054354:	6880      	ldr	r0, [r0, #8]
 8054356:	f5b0 4f00 	cmp.w	r0, #32768	; 0x8000
 805435a:	bf2c      	ite	cs
 805435c:	f841 3022 	strcs.w	r3, [r1, r2, lsl #2]
 8054360:	f821 3012 	strhcc.w	r3, [r1, r2, lsl #1]
 8054364:	4770      	bx	lr

08054366 <chunk_size>:
 8054366:	2201      	movs	r2, #1
 8054368:	b508      	push	{r3, lr}
 805436a:	f7ff ffe6 	bl	805433a <chunk_field>
 805436e:	0840      	lsrs	r0, r0, #1
 8054370:	bd08      	pop	{r3, pc}

08054372 <set_chunk_used>:
 8054372:	6883      	ldr	r3, [r0, #8]
 8054374:	eb00 01c1 	add.w	r1, r0, r1, lsl #3
 8054378:	f5b3 4f00 	cmp.w	r3, #32768	; 0x8000
 805437c:	d308      	bcc.n	8054390 <set_chunk_used+0x1e>
 805437e:	684b      	ldr	r3, [r1, #4]
 8054380:	b11a      	cbz	r2, 805438a <set_chunk_used+0x18>
 8054382:	f043 0301 	orr.w	r3, r3, #1
 8054386:	604b      	str	r3, [r1, #4]
 8054388:	4770      	bx	lr
 805438a:	f023 0301 	bic.w	r3, r3, #1
 805438e:	e7fa      	b.n	8054386 <set_chunk_used+0x14>
 8054390:	884b      	ldrh	r3, [r1, #2]
 8054392:	b11a      	cbz	r2, 805439c <set_chunk_used+0x2a>
 8054394:	f043 0301 	orr.w	r3, r3, #1
 8054398:	804b      	strh	r3, [r1, #2]
 805439a:	4770      	bx	lr
 805439c:	f023 0301 	bic.w	r3, r3, #1
 80543a0:	e7fa      	b.n	8054398 <set_chunk_used+0x26>

080543a2 <set_chunk_size>:
 80543a2:	0053      	lsls	r3, r2, #1
 80543a4:	2201      	movs	r2, #1
 80543a6:	f7ff bfd3 	b.w	8054350 <chunk_set>

080543aa <bucket_idx>:
 80543aa:	6880      	ldr	r0, [r0, #8]
 80543ac:	3101      	adds	r1, #1
 80543ae:	f5b0 4f00 	cmp.w	r0, #32768	; 0x8000
 80543b2:	bf2c      	ite	cs
 80543b4:	2002      	movcs	r0, #2
 80543b6:	2001      	movcc	r0, #1
 80543b8:	1a08      	subs	r0, r1, r0
 80543ba:	fab0 f080 	clz	r0, r0
 80543be:	f1c0 001f 	rsb	r0, r0, #31
 80543c2:	4770      	bx	lr

080543c4 <free_list_add>:
 80543c4:	e92d 41f0 	stmdb	sp!, {r4, r5, r6, r7, r8, lr}
 80543c8:	4604      	mov	r4, r0
 80543ca:	460d      	mov	r5, r1
 80543cc:	f7ff ffcb 	bl	8054366 <chunk_size>
 80543d0:	68a3      	ldr	r3, [r4, #8]
 80543d2:	4601      	mov	r1, r0
 80543d4:	f5b3 4f00 	cmp.w	r3, #32768	; 0x8000
 80543d8:	d301      	bcc.n	80543de <free_list_add+0x1a>
 80543da:	2801      	cmp	r0, #1
 80543dc:	d035      	beq.n	805444a <free_list_add+0x86>
 80543de:	4620      	mov	r0, r4
 80543e0:	f7ff ffe3 	bl	80543aa <bucket_idx>
 80543e4:	eb04 0280 	add.w	r2, r4, r0, lsl #2
 80543e8:	6916      	ldr	r6, [r2, #16]
 80543ea:	b99e      	cbnz	r6, 8054414 <free_list_add+0x50>
 80543ec:	2301      	movs	r3, #1
 80543ee:	fa03 f000 	lsl.w	r0, r3, r0
 80543f2:	68e3      	ldr	r3, [r4, #12]
 80543f4:	4629      	mov	r1, r5
 80543f6:	4303      	orrs	r3, r0
 80543f8:	60e3      	str	r3, [r4, #12]
 80543fa:	4620      	mov	r0, r4
 80543fc:	6115      	str	r5, [r2, #16]
 80543fe:	462b      	mov	r3, r5
 8054400:	2202      	movs	r2, #2
 8054402:	f7ff ffa5 	bl	8054350 <chunk_set>
 8054406:	2203      	movs	r2, #3
 8054408:	4629      	mov	r1, r5
 805440a:	4620      	mov	r0, r4
 805440c:	e8bd 41f0 	ldmia.w	sp!, {r4, r5, r6, r7, r8, lr}
 8054410:	f7ff bf9e 	b.w	8054350 <chunk_set>
 8054414:	2202      	movs	r2, #2
 8054416:	4631      	mov	r1, r6
 8054418:	4620      	mov	r0, r4
 805441a:	f7ff ff8e 	bl	805433a <chunk_field>
 805441e:	4607      	mov	r7, r0
 8054420:	4603      	mov	r3, r0
 8054422:	2202      	movs	r2, #2
 8054424:	4629      	mov	r1, r5
 8054426:	4620      	mov	r0, r4
 8054428:	f7ff ff92 	bl	8054350 <chunk_set>
 805442c:	4633      	mov	r3, r6
 805442e:	2203      	movs	r2, #3
 8054430:	4629      	mov	r1, r5
 8054432:	4620      	mov	r0, r4
 8054434:	f7ff ff8c 	bl	8054350 <chunk_set>
 8054438:	2203      	movs	r2, #3
 805443a:	4639      	mov	r1, r7
 805443c:	462b      	mov	r3, r5
 805443e:	4620      	mov	r0, r4
 8054440:	f7ff ff86 	bl	8054350 <chunk_set>
 8054444:	2202      	movs	r2, #2
 8054446:	4631      	mov	r1, r6
 8054448:	e7df      	b.n	805440a <free_list_add+0x46>
 805444a:	e8bd 81f0 	ldmia.w	sp!, {r4, r5, r6, r7, r8, pc}

0805444e <sys_heap_init>:
 805444e:	f5b2 2f80 	cmp.w	r2, #262144	; 0x40000
 8054452:	b5f8      	push	{r3, r4, r5, r6, r7, lr}
 8054454:	bf2c      	ite	cs
 8054456:	2508      	movcs	r5, #8
 8054458:	2504      	movcc	r5, #4
 805445a:	2300      	movs	r3, #0
 805445c:	1b55      	subs	r5, r2, r5
 805445e:	2200      	movs	r2, #0
 8054460:	1dcc      	adds	r4, r1, #7
 8054462:	f024 0407 	bic.w	r4, r4, #7
 8054466:	6004      	str	r4, [r0, #0]
 8054468:	e9c4 2300 	strd	r2, r3, [r4]
 805446c:	2300      	movs	r3, #0
 805446e:	440d      	add	r5, r1
 8054470:	f025 0507 	bic.w	r5, r5, #7
 8054474:	1b2d      	subs	r5, r5, r4
 8054476:	08ed      	lsrs	r5, r5, #3
 8054478:	4629      	mov	r1, r5
 805447a:	4620      	mov	r0, r4
 805447c:	60a5      	str	r5, [r4, #8]
 805447e:	60e3      	str	r3, [r4, #12]
 8054480:	f7ff ff93 	bl	80543aa <bucket_idx>
 8054484:	0086      	lsls	r6, r0, #2
 8054486:	1c41      	adds	r1, r0, #1
 8054488:	4618      	mov	r0, r3
 805448a:	361b      	adds	r6, #27
 805448c:	08f6      	lsrs	r6, r6, #3
 805448e:	f104 0210 	add.w	r2, r4, #16
 8054492:	428b      	cmp	r3, r1
 8054494:	db29      	blt.n	80544ea <sys_heap_init+0x9c>
 8054496:	4632      	mov	r2, r6
 8054498:	4620      	mov	r0, r4
 805449a:	2100      	movs	r1, #0
 805449c:	f7ff ff81 	bl	80543a2 <set_chunk_size>
 80544a0:	1baf      	subs	r7, r5, r6
 80544a2:	4620      	mov	r0, r4
 80544a4:	2201      	movs	r2, #1
 80544a6:	2100      	movs	r1, #0
 80544a8:	f7ff ff63 	bl	8054372 <set_chunk_used>
 80544ac:	463a      	mov	r2, r7
 80544ae:	4631      	mov	r1, r6
 80544b0:	f7ff ff77 	bl	80543a2 <set_chunk_size>
 80544b4:	4633      	mov	r3, r6
 80544b6:	4631      	mov	r1, r6
 80544b8:	4620      	mov	r0, r4
 80544ba:	2200      	movs	r2, #0
 80544bc:	f7ff ff48 	bl	8054350 <chunk_set>
 80544c0:	4629      	mov	r1, r5
 80544c2:	4620      	mov	r0, r4
 80544c4:	2200      	movs	r2, #0
 80544c6:	f7ff ff6c 	bl	80543a2 <set_chunk_size>
 80544ca:	463b      	mov	r3, r7
 80544cc:	4629      	mov	r1, r5
 80544ce:	4620      	mov	r0, r4
 80544d0:	2200      	movs	r2, #0
 80544d2:	f7ff ff3d 	bl	8054350 <chunk_set>
 80544d6:	4629      	mov	r1, r5
 80544d8:	4620      	mov	r0, r4
 80544da:	2201      	movs	r2, #1
 80544dc:	f7ff ff49 	bl	8054372 <set_chunk_used>
 80544e0:	4631      	mov	r1, r6
 80544e2:	e8bd 40f8 	ldmia.w	sp!, {r3, r4, r5, r6, r7, lr}
 80544e6:	f7ff bf6d 	b.w	80543c4 <free_list_add>
 80544ea:	f842 0b04 	str.w	r0, [r2], #4
 80544ee:	3301      	adds	r3, #1
 80544f0:	e7cf      	b.n	8054492 <sys_heap_init+0x44>

080544f2 <_ConfigAbsSyms>:
 80544f2:	4770      	bx	lr

080544f4 <__stm32_exti_isr_0>:
 80544f4:	68c2      	ldr	r2, [r0, #12]
 80544f6:	2101      	movs	r1, #1
 80544f8:	2000      	movs	r0, #0
 80544fa:	f7fd bd6d 	b.w	8051fd8 <__stm32_exti_isr.isra.0>

080544fe <__stm32_exti_isr_1>:
 80544fe:	68c2      	ldr	r2, [r0, #12]
 8054500:	2102      	movs	r1, #2
 8054502:	2001      	movs	r0, #1
 8054504:	f7fd bd68 	b.w	8051fd8 <__stm32_exti_isr.isra.0>

08054508 <__stm32_exti_isr_2>:
 8054508:	68c2      	ldr	r2, [r0, #12]
 805450a:	2103      	movs	r1, #3
 805450c:	2002      	movs	r0, #2
 805450e:	f7fd bd63 	b.w	8051fd8 <__stm32_exti_isr.isra.0>

08054512 <__stm32_exti_isr_3>:
 8054512:	68c2      	ldr	r2, [r0, #12]
 8054514:	2104      	movs	r1, #4
 8054516:	2003      	movs	r0, #3
 8054518:	f7fd bd5e 	b.w	8051fd8 <__stm32_exti_isr.isra.0>

0805451c <__stm32_exti_isr_4>:
 805451c:	68c2      	ldr	r2, [r0, #12]
 805451e:	2105      	movs	r1, #5
 8054520:	2004      	movs	r0, #4
 8054522:	f7fd bd59 	b.w	8051fd8 <__stm32_exti_isr.isra.0>

08054526 <__stm32_exti_isr_5>:
 8054526:	68c2      	ldr	r2, [r0, #12]
 8054528:	2106      	movs	r1, #6
 805452a:	2005      	movs	r0, #5
 805452c:	f7fd bd54 	b.w	8051fd8 <__stm32_exti_isr.isra.0>

08054530 <__stm32_exti_isr_6>:
 8054530:	68c2      	ldr	r2, [r0, #12]
 8054532:	2107      	movs	r1, #7
 8054534:	2006      	movs	r0, #6
 8054536:	f7fd bd4f 	b.w	8051fd8 <__stm32_exti_isr.isra.0>

0805453a <__stm32_exti_isr_7>:
 805453a:	68c2      	ldr	r2, [r0, #12]
 805453c:	2108      	movs	r1, #8
 805453e:	2007      	movs	r0, #7
 8054540:	f7fd bd4a 	b.w	8051fd8 <__stm32_exti_isr.isra.0>

08054544 <__stm32_exti_isr_8>:
 8054544:	68c2      	ldr	r2, [r0, #12]
 8054546:	2109      	movs	r1, #9
 8054548:	2008      	movs	r0, #8
 805454a:	f7fd bd45 	b.w	8051fd8 <__stm32_exti_isr.isra.0>

0805454e <__stm32_exti_isr_9>:
 805454e:	68c2      	ldr	r2, [r0, #12]
 8054550:	210a      	movs	r1, #10
 8054552:	2009      	movs	r0, #9
 8054554:	f7fd bd40 	b.w	8051fd8 <__stm32_exti_isr.isra.0>

08054558 <__stm32_exti_isr_10>:
 8054558:	68c2      	ldr	r2, [r0, #12]
 805455a:	210b      	movs	r1, #11
 805455c:	200a      	movs	r0, #10
 805455e:	f7fd bd3b 	b.w	8051fd8 <__stm32_exti_isr.isra.0>

08054562 <__stm32_exti_isr_11>:
 8054562:	68c2      	ldr	r2, [r0, #12]
 8054564:	210c      	movs	r1, #12
 8054566:	200b      	movs	r0, #11
 8054568:	f7fd bd36 	b.w	8051fd8 <__stm32_exti_isr.isra.0>

0805456c <__stm32_exti_isr_12>:
 805456c:	68c2      	ldr	r2, [r0, #12]
 805456e:	210d      	movs	r1, #13
 8054570:	200c      	movs	r0, #12
 8054572:	f7fd bd31 	b.w	8051fd8 <__stm32_exti_isr.isra.0>

08054576 <__stm32_exti_isr_13>:
 8054576:	68c2      	ldr	r2, [r0, #12]
 8054578:	210e      	movs	r1, #14
 805457a:	200d      	movs	r0, #13
 805457c:	f7fd bd2c 	b.w	8051fd8 <__stm32_exti_isr.isra.0>

08054580 <__stm32_exti_isr_14>:
 8054580:	68c2      	ldr	r2, [r0, #12]
 8054582:	210f      	movs	r1, #15
 8054584:	200e      	movs	r0, #14
 8054586:	f7fd bd27 	b.w	8051fd8 <__stm32_exti_isr.isra.0>

0805458a <__stm32_exti_isr_15>:
 805458a:	68c2      	ldr	r2, [r0, #12]
 805458c:	2110      	movs	r1, #16
 805458e:	200f      	movs	r0, #15
 8054590:	f7fd bd22 	b.w	8051fd8 <__stm32_exti_isr.isra.0>

08054594 <stm32_exti_init>:
 8054594:	2200      	movs	r2, #0
 8054596:	b508      	push	{r3, lr}
 8054598:	4611      	mov	r1, r2
 805459a:	200b      	movs	r0, #11
 805459c:	f7fe f80c 	bl	80525b8 <z_arm_irq_priority_set>
 80545a0:	2200      	movs	r2, #0
 80545a2:	200c      	movs	r0, #12
 80545a4:	4611      	mov	r1, r2
 80545a6:	f7fe f807 	bl	80525b8 <z_arm_irq_priority_set>
 80545aa:	2200      	movs	r2, #0
 80545ac:	200d      	movs	r0, #13
 80545ae:	4611      	mov	r1, r2
 80545b0:	f7fe f802 	bl	80525b8 <z_arm_irq_priority_set>
 80545b4:	2200      	movs	r2, #0
 80545b6:	200e      	movs	r0, #14
 80545b8:	4611      	mov	r1, r2
 80545ba:	f7fd fffd 	bl	80525b8 <z_arm_irq_priority_set>
 80545be:	2200      	movs	r2, #0
 80545c0:	200f      	movs	r0, #15
 80545c2:	4611      	mov	r1, r2
 80545c4:	f7fd fff8 	bl	80525b8 <z_arm_irq_priority_set>
 80545c8:	2200      	movs	r2, #0
 80545ca:	2010      	movs	r0, #16
 80545cc:	4611      	mov	r1, r2
 80545ce:	f7fd fff3 	bl	80525b8 <z_arm_irq_priority_set>
 80545d2:	2200      	movs	r2, #0
 80545d4:	2011      	movs	r0, #17
 80545d6:	4611      	mov	r1, r2
 80545d8:	f7fd ffee 	bl	80525b8 <z_arm_irq_priority_set>
 80545dc:	2200      	movs	r2, #0
 80545de:	2012      	movs	r0, #18
 80545e0:	4611      	mov	r1, r2
 80545e2:	f7fd ffe9 	bl	80525b8 <z_arm_irq_priority_set>
 80545e6:	2200      	movs	r2, #0
 80545e8:	2013      	movs	r0, #19
 80545ea:	4611      	mov	r1, r2
 80545ec:	f7fd ffe4 	bl	80525b8 <z_arm_irq_priority_set>
 80545f0:	2200      	movs	r2, #0
 80545f2:	2014      	movs	r0, #20
 80545f4:	4611      	mov	r1, r2
 80545f6:	f7fd ffdf 	bl	80525b8 <z_arm_irq_priority_set>
 80545fa:	2200      	movs	r2, #0
 80545fc:	2015      	movs	r0, #21
 80545fe:	4611      	mov	r1, r2
 8054600:	f7fd ffda 	bl	80525b8 <z_arm_irq_priority_set>
 8054604:	2200      	movs	r2, #0
 8054606:	2016      	movs	r0, #22
 8054608:	4611      	mov	r1, r2
 805460a:	f7fd ffd5 	bl	80525b8 <z_arm_irq_priority_set>
 805460e:	2200      	movs	r2, #0
 8054610:	2017      	movs	r0, #23
 8054612:	4611      	mov	r1, r2
 8054614:	f7fd ffd0 	bl	80525b8 <z_arm_irq_priority_set>
 8054618:	2200      	movs	r2, #0
 805461a:	2018      	movs	r0, #24
 805461c:	4611      	mov	r1, r2
 805461e:	f7fd ffcb 	bl	80525b8 <z_arm_irq_priority_set>
 8054622:	2200      	movs	r2, #0
 8054624:	2019      	movs	r0, #25
 8054626:	4611      	mov	r1, r2
 8054628:	f7fd ffc6 	bl	80525b8 <z_arm_irq_priority_set>
 805462c:	2200      	movs	r2, #0
 805462e:	201a      	movs	r0, #26
 8054630:	4611      	mov	r1, r2
 8054632:	f7fd ffc1 	bl	80525b8 <z_arm_irq_priority_set>
 8054636:	2000      	movs	r0, #0
 8054638:	bd08      	pop	{r3, pc}

0805463a <config_pll_init>:
 805463a:	2300      	movs	r3, #0
 805463c:	2237      	movs	r2, #55	; 0x37
 805463e:	6083      	str	r3, [r0, #8]
 8054640:	e9c0 3200 	strd	r3, r2, [r0]
 8054644:	4770      	bx	lr

08054646 <config_enable_default_clocks>:
 8054646:	4770      	bx	lr

08054648 <z_irq_spurious>:
 8054648:	2100      	movs	r1, #0
 805464a:	2001      	movs	r0, #1
 805464c:	f000 b800 	b.w	8054650 <z_arm_fatal_error>

08054650 <z_arm_fatal_error>:
 8054650:	f000 ba25 	b.w	8054a9e <z_fatal_error>

08054654 <z_do_kernel_oops>:
 8054654:	4601      	mov	r1, r0
 8054656:	6800      	ldr	r0, [r0, #0]
 8054658:	f000 ba21 	b.w	8054a9e <z_fatal_error>

0805465c <strncpy>:
 805465c:	b570      	push	{r4, r5, r6, lr}
 805465e:	4605      	mov	r5, r0
 8054660:	3901      	subs	r1, #1
 8054662:	462c      	mov	r4, r5
 8054664:	b142      	cbz	r2, 8054678 <strncpy+0x1c>
 8054666:	f811 3f01 	ldrb.w	r3, [r1, #1]!
 805466a:	1e56      	subs	r6, r2, #1
 805466c:	b92b      	cbnz	r3, 805467a <strncpy+0x1e>
 805466e:	442a      	add	r2, r5
 8054670:	f804 3b01 	strb.w	r3, [r4], #1
 8054674:	42a2      	cmp	r2, r4
 8054676:	d1fb      	bne.n	8054670 <strncpy+0x14>
 8054678:	bd70      	pop	{r4, r5, r6, pc}
 805467a:	4632      	mov	r2, r6
 805467c:	f805 3b01 	strb.w	r3, [r5], #1
 8054680:	e7ef      	b.n	8054662 <strncpy+0x6>

08054682 <strcmp>:
 8054682:	1e43      	subs	r3, r0, #1
 8054684:	3901      	subs	r1, #1
 8054686:	f813 2f01 	ldrb.w	r2, [r3, #1]!
 805468a:	f811 0f01 	ldrb.w	r0, [r1, #1]!
 805468e:	4282      	cmp	r2, r0
 8054690:	d101      	bne.n	8054696 <strcmp+0x14>
 8054692:	2a00      	cmp	r2, #0
 8054694:	d1f7      	bne.n	8054686 <strcmp+0x4>
 8054696:	1a10      	subs	r0, r2, r0
 8054698:	4770      	bx	lr

0805469a <memcpy>:
 805469a:	b5f0      	push	{r4, r5, r6, r7, lr}
 805469c:	ea81 0400 	eor.w	r4, r1, r0
 80546a0:	07a5      	lsls	r5, r4, #30
 80546a2:	4603      	mov	r3, r0
 80546a4:	d00b      	beq.n	80546be <memcpy+0x24>
 80546a6:	3b01      	subs	r3, #1
 80546a8:	440a      	add	r2, r1
 80546aa:	4291      	cmp	r1, r2
 80546ac:	d11b      	bne.n	80546e6 <memcpy+0x4c>
 80546ae:	bdf0      	pop	{r4, r5, r6, r7, pc}
 80546b0:	2a00      	cmp	r2, #0
 80546b2:	d0fc      	beq.n	80546ae <memcpy+0x14>
 80546b4:	f811 4b01 	ldrb.w	r4, [r1], #1
 80546b8:	3a01      	subs	r2, #1
 80546ba:	f803 4b01 	strb.w	r4, [r3], #1
 80546be:	079c      	lsls	r4, r3, #30
 80546c0:	d1f6      	bne.n	80546b0 <memcpy+0x16>
 80546c2:	f022 0403 	bic.w	r4, r2, #3
 80546c6:	1f1d      	subs	r5, r3, #4
 80546c8:	0896      	lsrs	r6, r2, #2
 80546ca:	190f      	adds	r7, r1, r4
 80546cc:	42b9      	cmp	r1, r7
 80546ce:	d105      	bne.n	80546dc <memcpy+0x42>
 80546d0:	f06f 0503 	mvn.w	r5, #3
 80546d4:	4423      	add	r3, r4
 80546d6:	fb05 2206 	mla	r2, r5, r6, r2
 80546da:	e7e4      	b.n	80546a6 <memcpy+0xc>
 80546dc:	f851 cb04 	ldr.w	ip, [r1], #4
 80546e0:	f845 cf04 	str.w	ip, [r5, #4]!
 80546e4:	e7f2      	b.n	80546cc <memcpy+0x32>
 80546e6:	f811 4b01 	ldrb.w	r4, [r1], #1
 80546ea:	f803 4f01 	strb.w	r4, [r3, #1]!
 80546ee:	e7dc      	b.n	80546aa <memcpy+0x10>

080546f0 <memset>:
 80546f0:	4603      	mov	r3, r0
 80546f2:	b570      	push	{r4, r5, r6, lr}
 80546f4:	b2c9      	uxtb	r1, r1
 80546f6:	079c      	lsls	r4, r3, #30
 80546f8:	d111      	bne.n	805471e <memset+0x2e>
 80546fa:	ea41 2401 	orr.w	r4, r1, r1, lsl #8
 80546fe:	f022 0603 	bic.w	r6, r2, #3
 8054702:	ea44 4504 	orr.w	r5, r4, r4, lsl #16
 8054706:	441e      	add	r6, r3
 8054708:	0894      	lsrs	r4, r2, #2
 805470a:	42b3      	cmp	r3, r6
 805470c:	d10d      	bne.n	805472a <memset+0x3a>
 805470e:	f06f 0503 	mvn.w	r5, #3
 8054712:	fb05 2204 	mla	r2, r5, r4, r2
 8054716:	441a      	add	r2, r3
 8054718:	4293      	cmp	r3, r2
 805471a:	d109      	bne.n	8054730 <memset+0x40>
 805471c:	bd70      	pop	{r4, r5, r6, pc}
 805471e:	2a00      	cmp	r2, #0
 8054720:	d0fc      	beq.n	805471c <memset+0x2c>
 8054722:	f803 1b01 	strb.w	r1, [r3], #1
 8054726:	3a01      	subs	r2, #1
 8054728:	e7e5      	b.n	80546f6 <memset+0x6>
 805472a:	f843 5b04 	str.w	r5, [r3], #4
 805472e:	e7ec      	b.n	805470a <memset+0x1a>
 8054730:	f803 1b01 	strb.w	r1, [r3], #1
 8054734:	e7f0      	b.n	8054718 <memset+0x28>

08054736 <_stdout_hook_default>:
 8054736:	f04f 30ff 	mov.w	r0, #4294967295	; 0xffffffff
 805473a:	4770      	bx	lr

0805473c <gpio_stm32_isr>:
 805473c:	460b      	mov	r3, r1
 805473e:	6889      	ldr	r1, [r1, #8]
 8054740:	b570      	push	{r4, r5, r6, lr}
 8054742:	b1a1      	cbz	r1, 805476e <gpio_stm32_isr+0x32>
 8054744:	680c      	ldr	r4, [r1, #0]
 8054746:	2501      	movs	r5, #1
 8054748:	2c00      	cmp	r4, #0
 805474a:	bf38      	it	cc
 805474c:	2400      	movcc	r4, #0
 805474e:	685e      	ldr	r6, [r3, #4]
 8054750:	4085      	lsls	r5, r0
 8054752:	688a      	ldr	r2, [r1, #8]
 8054754:	402a      	ands	r2, r5
 8054756:	d002      	beq.n	805475e <gpio_stm32_isr+0x22>
 8054758:	4630      	mov	r0, r6
 805475a:	684b      	ldr	r3, [r1, #4]
 805475c:	4798      	blx	r3
 805475e:	b134      	cbz	r4, 805476e <gpio_stm32_isr+0x32>
 8054760:	6823      	ldr	r3, [r4, #0]
 8054762:	4621      	mov	r1, r4
 8054764:	2b00      	cmp	r3, #0
 8054766:	bf38      	it	cc
 8054768:	2300      	movcc	r3, #0
 805476a:	461c      	mov	r4, r3
 805476c:	e7f1      	b.n	8054752 <gpio_stm32_isr+0x16>
 805476e:	bd70      	pop	{r4, r5, r6, pc}

08054770 <gpio_stm32_port_get_raw>:
 8054770:	6843      	ldr	r3, [r0, #4]
 8054772:	2000      	movs	r0, #0
 8054774:	685b      	ldr	r3, [r3, #4]
 8054776:	691b      	ldr	r3, [r3, #16]
 8054778:	600b      	str	r3, [r1, #0]
 805477a:	4770      	bx	lr

0805477c <gpio_stm32_port_set_masked_raw>:
 805477c:	6843      	ldr	r3, [r0, #4]
 805477e:	685b      	ldr	r3, [r3, #4]
 8054780:	6958      	ldr	r0, [r3, #20]
 8054782:	4042      	eors	r2, r0
 8054784:	400a      	ands	r2, r1
 8054786:	4042      	eors	r2, r0
 8054788:	615a      	str	r2, [r3, #20]
 805478a:	2000      	movs	r0, #0
 805478c:	4770      	bx	lr

0805478e <gpio_stm32_port_set_bits_raw>:
 805478e:	6843      	ldr	r3, [r0, #4]
 8054790:	2000      	movs	r0, #0
 8054792:	685b      	ldr	r3, [r3, #4]
 8054794:	6199      	str	r1, [r3, #24]
 8054796:	4770      	bx	lr

08054798 <gpio_stm32_port_clear_bits_raw>:
 8054798:	6843      	ldr	r3, [r0, #4]
 805479a:	2000      	movs	r0, #0
 805479c:	685b      	ldr	r3, [r3, #4]
 805479e:	6299      	str	r1, [r3, #40]	; 0x28
 80547a0:	4770      	bx	lr

080547a2 <gpio_stm32_port_toggle_bits>:
 80547a2:	6843      	ldr	r3, [r0, #4]
 80547a4:	2000      	movs	r0, #0
 80547a6:	685a      	ldr	r2, [r3, #4]
 80547a8:	6953      	ldr	r3, [r2, #20]
 80547aa:	404b      	eors	r3, r1
 80547ac:	6153      	str	r3, [r2, #20]
 80547ae:	4770      	bx	lr

080547b0 <gpio_stm32_manage_callback>:
 80547b0:	68c3      	ldr	r3, [r0, #12]
 80547b2:	b530      	push	{r4, r5, lr}
 80547b4:	6898      	ldr	r0, [r3, #8]
 80547b6:	b158      	cbz	r0, 80547d0 <gpio_stm32_manage_callback+0x20>
 80547b8:	2400      	movs	r4, #0
 80547ba:	4281      	cmp	r1, r0
 80547bc:	d113      	bne.n	80547e6 <gpio_stm32_manage_callback+0x36>
 80547be:	6808      	ldr	r0, [r1, #0]
 80547c0:	b95c      	cbnz	r4, 80547da <gpio_stm32_manage_callback+0x2a>
 80547c2:	68dc      	ldr	r4, [r3, #12]
 80547c4:	6098      	str	r0, [r3, #8]
 80547c6:	42a1      	cmp	r1, r4
 80547c8:	d100      	bne.n	80547cc <gpio_stm32_manage_callback+0x1c>
 80547ca:	60d8      	str	r0, [r3, #12]
 80547cc:	2000      	movs	r0, #0
 80547ce:	6008      	str	r0, [r1, #0]
 80547d0:	b972      	cbnz	r2, 80547f0 <gpio_stm32_manage_callback+0x40>
 80547d2:	2000      	movs	r0, #0
 80547d4:	bd30      	pop	{r4, r5, pc}
 80547d6:	4628      	mov	r0, r5
 80547d8:	e7ef      	b.n	80547ba <gpio_stm32_manage_callback+0xa>
 80547da:	6020      	str	r0, [r4, #0]
 80547dc:	68d8      	ldr	r0, [r3, #12]
 80547de:	4281      	cmp	r1, r0
 80547e0:	bf08      	it	eq
 80547e2:	60dc      	streq	r4, [r3, #12]
 80547e4:	e7f2      	b.n	80547cc <gpio_stm32_manage_callback+0x1c>
 80547e6:	6805      	ldr	r5, [r0, #0]
 80547e8:	4604      	mov	r4, r0
 80547ea:	2d00      	cmp	r5, #0
 80547ec:	d1f3      	bne.n	80547d6 <gpio_stm32_manage_callback+0x26>
 80547ee:	b13a      	cbz	r2, 8054800 <gpio_stm32_manage_callback+0x50>
 80547f0:	689a      	ldr	r2, [r3, #8]
 80547f2:	600a      	str	r2, [r1, #0]
 80547f4:	68d8      	ldr	r0, [r3, #12]
 80547f6:	6099      	str	r1, [r3, #8]
 80547f8:	2800      	cmp	r0, #0
 80547fa:	d1ea      	bne.n	80547d2 <gpio_stm32_manage_callback+0x22>
 80547fc:	60d9      	str	r1, [r3, #12]
 80547fe:	e7e9      	b.n	80547d4 <gpio_stm32_manage_callback+0x24>
 8054800:	f06f 0015 	mvn.w	r0, #21
 8054804:	e7e6      	b.n	80547d4 <gpio_stm32_manage_callback+0x24>

08054806 <gpio_stm32_configure>:
 8054806:	b5f0      	push	{r4, r5, r6, r7, lr}
 8054808:	2401      	movs	r4, #1
 805480a:	408c      	lsls	r4, r1
 805480c:	fa94 f7a4 	rbit	r7, r4
 8054810:	fab7 f787 	clz	r7, r7
 8054814:	f04f 0e03 	mov.w	lr, #3
 8054818:	f8d0 c000 	ldr.w	ip, [r0]
 805481c:	007f      	lsls	r7, r7, #1
 805481e:	fa0e f707 	lsl.w	r7, lr, r7
 8054822:	ea2c 0c07 	bic.w	ip, ip, r7
 8054826:	fa94 f7a4 	rbit	r7, r4
 805482a:	fab7 f787 	clz	r7, r7
 805482e:	f3c2 1501 	ubfx	r5, r2, #4, #2
 8054832:	007f      	lsls	r7, r7, #1
 8054834:	f002 0630 	and.w	r6, r2, #48	; 0x30
 8054838:	40bd      	lsls	r5, r7
 805483a:	ea45 050c 	orr.w	r5, r5, ip
 805483e:	2e20      	cmp	r6, #32
 8054840:	6005      	str	r5, [r0, #0]
 8054842:	d115      	bne.n	8054870 <gpio_stm32_configure+0x6a>
 8054844:	2907      	cmp	r1, #7
 8054846:	dc48      	bgt.n	80548da <gpio_stm32_configure+0xd4>
 8054848:	fa94 f5a4 	rbit	r5, r4
 805484c:	6a07      	ldr	r7, [r0, #32]
 805484e:	b10d      	cbz	r5, 8054854 <gpio_stm32_configure+0x4e>
 8054850:	fab5 f685 	clz	r6, r5
 8054854:	250f      	movs	r5, #15
 8054856:	00b6      	lsls	r6, r6, #2
 8054858:	fa05 f606 	lsl.w	r6, r5, r6
 805485c:	fa94 f5a4 	rbit	r5, r4
 8054860:	fab5 f585 	clz	r5, r5
 8054864:	00ad      	lsls	r5, r5, #2
 8054866:	ea27 0606 	bic.w	r6, r7, r6
 805486a:	40ab      	lsls	r3, r5
 805486c:	4333      	orrs	r3, r6
 805486e:	6203      	str	r3, [r0, #32]
 8054870:	6845      	ldr	r5, [r0, #4]
 8054872:	f3c2 1380 	ubfx	r3, r2, #6, #1
 8054876:	fa03 f101 	lsl.w	r1, r3, r1
 805487a:	ea25 0304 	bic.w	r3, r5, r4
 805487e:	4319      	orrs	r1, r3
 8054880:	6041      	str	r1, [r0, #4]
 8054882:	fa94 f1a4 	rbit	r1, r4
 8054886:	fab1 f181 	clz	r1, r1
 805488a:	2603      	movs	r6, #3
 805488c:	6885      	ldr	r5, [r0, #8]
 805488e:	0049      	lsls	r1, r1, #1
 8054890:	fa06 f101 	lsl.w	r1, r6, r1
 8054894:	ea25 0501 	bic.w	r5, r5, r1
 8054898:	fa94 f1a4 	rbit	r1, r4
 805489c:	fab1 f181 	clz	r1, r1
 80548a0:	f3c2 13c1 	ubfx	r3, r2, #7, #2
 80548a4:	0049      	lsls	r1, r1, #1
 80548a6:	408b      	lsls	r3, r1
 80548a8:	432b      	orrs	r3, r5
 80548aa:	6083      	str	r3, [r0, #8]
 80548ac:	fa94 f3a4 	rbit	r3, r4
 80548b0:	fab3 f383 	clz	r3, r3
 80548b4:	fa94 f4a4 	rbit	r4, r4
 80548b8:	fab4 f484 	clz	r4, r4
 80548bc:	68c1      	ldr	r1, [r0, #12]
 80548be:	005b      	lsls	r3, r3, #1
 80548c0:	f3c2 2241 	ubfx	r2, r2, #9, #2
 80548c4:	fa06 f303 	lsl.w	r3, r6, r3
 80548c8:	0064      	lsls	r4, r4, #1
 80548ca:	ea21 0303 	bic.w	r3, r1, r3
 80548ce:	fa02 f404 	lsl.w	r4, r2, r4
 80548d2:	431c      	orrs	r4, r3
 80548d4:	60c4      	str	r4, [r0, #12]
 80548d6:	2000      	movs	r0, #0
 80548d8:	bdf0      	pop	{r4, r5, r6, r7, pc}
 80548da:	0a25      	lsrs	r5, r4, #8
 80548dc:	6a47      	ldr	r7, [r0, #36]	; 0x24
 80548de:	fa95 fca5 	rbit	ip, r5
 80548e2:	f1bc 0f00 	cmp.w	ip, #0
 80548e6:	d001      	beq.n	80548ec <gpio_stm32_configure+0xe6>
 80548e8:	fabc f68c 	clz	r6, ip
 80548ec:	fa95 f5a5 	rbit	r5, r5
 80548f0:	f04f 0c0f 	mov.w	ip, #15
 80548f4:	fab5 f585 	clz	r5, r5
 80548f8:	00b6      	lsls	r6, r6, #2
 80548fa:	fa0c f606 	lsl.w	r6, ip, r6
 80548fe:	00ad      	lsls	r5, r5, #2
 8054900:	ea27 0606 	bic.w	r6, r7, r6
 8054904:	40ab      	lsls	r3, r5
 8054906:	4333      	orrs	r3, r6
 8054908:	6243      	str	r3, [r0, #36]	; 0x24
 805490a:	e7b1      	b.n	8054870 <gpio_stm32_configure+0x6a>

0805490c <gpio_stm32_config>:
 805490c:	4613      	mov	r3, r2
 805490e:	059a      	lsls	r2, r3, #22
 8054910:	b510      	push	{r4, lr}
 8054912:	6840      	ldr	r0, [r0, #4]
 8054914:	d519      	bpl.n	805494a <gpio_stm32_config+0x3e>
 8054916:	079c      	lsls	r4, r3, #30
 8054918:	d510      	bpl.n	805493c <gpio_stm32_config+0x30>
 805491a:	075a      	lsls	r2, r3, #29
 805491c:	d52d      	bpl.n	805497a <gpio_stm32_config+0x6e>
 805491e:	2250      	movs	r2, #80	; 0x50
 8054920:	06dc      	lsls	r4, r3, #27
 8054922:	d50d      	bpl.n	8054940 <gpio_stm32_config+0x34>
 8054924:	f442 7200 	orr.w	r2, r2, #512	; 0x200
 8054928:	f413 6f00 	tst.w	r3, #2048	; 0x800
 805492c:	6844      	ldr	r4, [r0, #4]
 805492e:	d11b      	bne.n	8054968 <gpio_stm32_config+0x5c>
 8054930:	055b      	lsls	r3, r3, #21
 8054932:	d513      	bpl.n	805495c <gpio_stm32_config+0x50>
 8054934:	2301      	movs	r3, #1
 8054936:	408b      	lsls	r3, r1
 8054938:	62a3      	str	r3, [r4, #40]	; 0x28
 805493a:	e00f      	b.n	805495c <gpio_stm32_config+0x50>
 805493c:	2210      	movs	r2, #16
 805493e:	e7ef      	b.n	8054920 <gpio_stm32_config+0x14>
 8054940:	069c      	lsls	r4, r3, #26
 8054942:	d5f1      	bpl.n	8054928 <gpio_stm32_config+0x1c>
 8054944:	f442 6280 	orr.w	r2, r2, #1024	; 0x400
 8054948:	e7ee      	b.n	8054928 <gpio_stm32_config+0x1c>
 805494a:	05dc      	lsls	r4, r3, #23
 805494c:	d510      	bpl.n	8054970 <gpio_stm32_config+0x64>
 805494e:	06da      	lsls	r2, r3, #27
 8054950:	d410      	bmi.n	8054974 <gpio_stm32_config+0x68>
 8054952:	f013 0220 	ands.w	r2, r3, #32
 8054956:	bf18      	it	ne
 8054958:	f44f 6280 	movne.w	r2, #1024	; 0x400
 805495c:	2300      	movs	r3, #0
 805495e:	6840      	ldr	r0, [r0, #4]
 8054960:	f7ff ff51 	bl	8054806 <gpio_stm32_configure>
 8054964:	2000      	movs	r0, #0
 8054966:	bd10      	pop	{r4, pc}
 8054968:	2301      	movs	r3, #1
 805496a:	408b      	lsls	r3, r1
 805496c:	61a3      	str	r3, [r4, #24]
 805496e:	e7f5      	b.n	805495c <gpio_stm32_config+0x50>
 8054970:	2230      	movs	r2, #48	; 0x30
 8054972:	e7f3      	b.n	805495c <gpio_stm32_config+0x50>
 8054974:	f44f 7200 	mov.w	r2, #512	; 0x200
 8054978:	e7f0      	b.n	805495c <gpio_stm32_config+0x50>
 805497a:	f06f 0022 	mvn.w	r0, #34	; 0x22
 805497e:	e7f2      	b.n	8054966 <gpio_stm32_config+0x5a>

08054980 <uart_stm32_config_get>:
 8054980:	68c3      	ldr	r3, [r0, #12]
 8054982:	681b      	ldr	r3, [r3, #0]
 8054984:	600b      	str	r3, [r1, #0]
 8054986:	6843      	ldr	r3, [r0, #4]
 8054988:	681a      	ldr	r2, [r3, #0]
 805498a:	6813      	ldr	r3, [r2, #0]
 805498c:	f403 63c0 	and.w	r3, r3, #1536	; 0x600
 8054990:	f5b3 6f80 	cmp.w	r3, #1024	; 0x400
 8054994:	d028      	beq.n	80549e8 <uart_stm32_config_get+0x68>
 8054996:	f5a3 60c0 	sub.w	r0, r3, #1536	; 0x600
 805499a:	4243      	negs	r3, r0
 805499c:	4143      	adcs	r3, r0
 805499e:	710b      	strb	r3, [r1, #4]
 80549a0:	6853      	ldr	r3, [r2, #4]
 80549a2:	f403 5340 	and.w	r3, r3, #12288	; 0x3000
 80549a6:	f5b3 5f80 	cmp.w	r3, #4096	; 0x1000
 80549aa:	d01f      	beq.n	80549ec <uart_stm32_config_get+0x6c>
 80549ac:	f5b3 5f40 	cmp.w	r3, #12288	; 0x3000
 80549b0:	d01e      	beq.n	80549f0 <uart_stm32_config_get+0x70>
 80549b2:	2b00      	cmp	r3, #0
 80549b4:	bf14      	ite	ne
 80549b6:	2303      	movne	r3, #3
 80549b8:	2301      	moveq	r3, #1
 80549ba:	714b      	strb	r3, [r1, #5]
 80549bc:	6813      	ldr	r3, [r2, #0]
 80549be:	f003 2310 	and.w	r3, r3, #268439552	; 0x10001000
 80549c2:	f5b3 5f80 	cmp.w	r3, #4096	; 0x1000
 80549c6:	d015      	beq.n	80549f4 <uart_stm32_config_get+0x74>
 80549c8:	f1b3 5f80 	cmp.w	r3, #268435456	; 0x10000000
 80549cc:	bf14      	ite	ne
 80549ce:	2303      	movne	r3, #3
 80549d0:	2302      	moveq	r3, #2
 80549d2:	718b      	strb	r3, [r1, #6]
 80549d4:	6893      	ldr	r3, [r2, #8]
 80549d6:	2000      	movs	r0, #0
 80549d8:	f403 7340 	and.w	r3, r3, #768	; 0x300
 80549dc:	f5a3 7240 	sub.w	r2, r3, #768	; 0x300
 80549e0:	4253      	negs	r3, r2
 80549e2:	4153      	adcs	r3, r2
 80549e4:	71cb      	strb	r3, [r1, #7]
 80549e6:	4770      	bx	lr
 80549e8:	2302      	movs	r3, #2
 80549ea:	e7d8      	b.n	805499e <uart_stm32_config_get+0x1e>
 80549ec:	2300      	movs	r3, #0
 80549ee:	e7e4      	b.n	80549ba <uart_stm32_config_get+0x3a>
 80549f0:	2302      	movs	r3, #2
 80549f2:	e7e2      	b.n	80549ba <uart_stm32_config_get+0x3a>
 80549f4:	2304      	movs	r3, #4
 80549f6:	e7ec      	b.n	80549d2 <uart_stm32_config_get+0x52>

080549f8 <uart_stm32_poll_out>:
 80549f8:	6843      	ldr	r3, [r0, #4]
 80549fa:	681b      	ldr	r3, [r3, #0]
 80549fc:	69da      	ldr	r2, [r3, #28]
 80549fe:	0612      	lsls	r2, r2, #24
 8054a00:	d5fc      	bpl.n	80549fc <uart_stm32_poll_out+0x4>
 8054a02:	2240      	movs	r2, #64	; 0x40
 8054a04:	621a      	str	r2, [r3, #32]
 8054a06:	6299      	str	r1, [r3, #40]	; 0x28
 8054a08:	4770      	bx	lr

08054a0a <uart_stm32_err_check>:
 8054a0a:	6843      	ldr	r3, [r0, #4]
 8054a0c:	681b      	ldr	r3, [r3, #0]
 8054a0e:	69d8      	ldr	r0, [r3, #28]
 8054a10:	69da      	ldr	r2, [r3, #28]
 8054a12:	f3c0 00c0 	ubfx	r0, r0, #3, #1
 8054a16:	07d2      	lsls	r2, r2, #31
 8054a18:	69da      	ldr	r2, [r3, #28]
 8054a1a:	bf48      	it	mi
 8054a1c:	f040 0002 	orrmi.w	r0, r0, #2
 8054a20:	0791      	lsls	r1, r2, #30
 8054a22:	bf48      	it	mi
 8054a24:	f040 0004 	orrmi.w	r0, r0, #4
 8054a28:	07c2      	lsls	r2, r0, #31
 8054a2a:	bf44      	itt	mi
 8054a2c:	2208      	movmi	r2, #8
 8054a2e:	621a      	strmi	r2, [r3, #32]
 8054a30:	0781      	lsls	r1, r0, #30
 8054a32:	bf44      	itt	mi
 8054a34:	2201      	movmi	r2, #1
 8054a36:	621a      	strmi	r2, [r3, #32]
 8054a38:	0742      	lsls	r2, r0, #29
 8054a3a:	bf44      	itt	mi
 8054a3c:	2202      	movmi	r2, #2
 8054a3e:	621a      	strmi	r2, [r3, #32]
 8054a40:	2204      	movs	r2, #4
 8054a42:	621a      	str	r2, [r3, #32]
 8054a44:	4770      	bx	lr

08054a46 <uart_stm32_poll_in>:
 8054a46:	6843      	ldr	r3, [r0, #4]
 8054a48:	681b      	ldr	r3, [r3, #0]
 8054a4a:	69da      	ldr	r2, [r3, #28]
 8054a4c:	0710      	lsls	r0, r2, #28
 8054a4e:	bf44      	itt	mi
 8054a50:	2208      	movmi	r2, #8
 8054a52:	621a      	strmi	r2, [r3, #32]
 8054a54:	69da      	ldr	r2, [r3, #28]
 8054a56:	0692      	lsls	r2, r2, #26
 8054a58:	bf43      	ittte	mi
 8054a5a:	6a5b      	ldrmi	r3, [r3, #36]	; 0x24
 8054a5c:	2000      	movmi	r0, #0
 8054a5e:	700b      	strbmi	r3, [r1, #0]
 8054a60:	f04f 30ff 	movpl.w	r0, #4294967295	; 0xffffffff
 8054a64:	4770      	bx	lr

08054a66 <UTILS_GetPLLOutputFrequency>:
 8054a66:	680b      	ldr	r3, [r1, #0]
 8054a68:	091b      	lsrs	r3, r3, #4
 8054a6a:	3301      	adds	r3, #1
 8054a6c:	fbb0 f0f3 	udiv	r0, r0, r3
 8054a70:	684b      	ldr	r3, [r1, #4]
 8054a72:	f003 037f 	and.w	r3, r3, #127	; 0x7f
 8054a76:	4358      	muls	r0, r3
 8054a78:	688b      	ldr	r3, [r1, #8]
 8054a7a:	0e5b      	lsrs	r3, r3, #25
 8054a7c:	3301      	adds	r3, #1
 8054a7e:	005b      	lsls	r3, r3, #1
 8054a80:	fbb0 f0f3 	udiv	r0, r0, r3
 8054a84:	4770      	bx	lr

08054a86 <arch_system_halt>:
 8054a86:	f04f 0220 	mov.w	r2, #32
 8054a8a:	f3ef 8311 	mrs	r3, BASEPRI
 8054a8e:	f382 8811 	msr	BASEPRI, r2
 8054a92:	f3bf 8f6f 	isb	sy
 8054a96:	e7fe      	b.n	8054a96 <arch_system_halt+0x10>

08054a98 <k_sys_fatal_error_handler>:
 8054a98:	b508      	push	{r3, lr}
 8054a9a:	f7ff fff4 	bl	8054a86 <arch_system_halt>

08054a9e <z_fatal_error>:
 8054a9e:	b5f8      	push	{r3, r4, r5, r6, r7, lr}
 8054aa0:	4605      	mov	r5, r0
 8054aa2:	460e      	mov	r6, r1
 8054aa4:	f04f 0320 	mov.w	r3, #32
 8054aa8:	f3ef 8711 	mrs	r7, BASEPRI
 8054aac:	f383 8811 	msr	BASEPRI, r3
 8054ab0:	f3bf 8f6f 	isb	sy
 8054ab4:	f7fe fec8 	bl	8053848 <z_impl_k_current_get>
 8054ab8:	4631      	mov	r1, r6
 8054aba:	4604      	mov	r4, r0
 8054abc:	4628      	mov	r0, r5
 8054abe:	f7ff ffeb 	bl	8054a98 <k_sys_fatal_error_handler>
 8054ac2:	f387 8811 	msr	BASEPRI, r7
 8054ac6:	f3bf 8f6f 	isb	sy
 8054aca:	4620      	mov	r0, r4
 8054acc:	e8bd 40f8 	ldmia.w	sp!, {r3, r4, r5, r6, r7, lr}
 8054ad0:	f7fd bf42 	b.w	8052958 <z_impl_k_thread_abort>

08054ad4 <sys_dlist_remove>:
 8054ad4:	e9d0 3200 	ldrd	r3, r2, [r0]
 8054ad8:	6013      	str	r3, [r2, #0]
 8054ada:	605a      	str	r2, [r3, #4]
 8054adc:	2300      	movs	r3, #0
 8054ade:	e9c0 3300 	strd	r3, r3, [r0]
 8054ae2:	4770      	bx	lr

08054ae4 <z_priq_rb_lessthan>:
 8054ae4:	f990 300e 	ldrsb.w	r3, [r0, #14]
 8054ae8:	f991 200e 	ldrsb.w	r2, [r1, #14]
 8054aec:	429a      	cmp	r2, r3
 8054aee:	dc07      	bgt.n	8054b00 <z_priq_rb_lessthan+0x1c>
 8054af0:	db08      	blt.n	8054b04 <z_priq_rb_lessthan+0x20>
 8054af2:	6900      	ldr	r0, [r0, #16]
 8054af4:	690b      	ldr	r3, [r1, #16]
 8054af6:	4298      	cmp	r0, r3
 8054af8:	bf2c      	ite	cs
 8054afa:	2000      	movcs	r0, #0
 8054afc:	2001      	movcc	r0, #1
 8054afe:	4770      	bx	lr
 8054b00:	2001      	movs	r0, #1
 8054b02:	4770      	bx	lr
 8054b04:	2000      	movs	r0, #0
 8054b06:	4770      	bx	lr

08054b08 <z_reschedule_irqlock>:
 8054b08:	4603      	mov	r3, r0
 8054b0a:	b920      	cbnz	r0, 8054b16 <z_reschedule_irqlock+0xe>
 8054b0c:	f3ef 8205 	mrs	r2, IPSR
 8054b10:	b90a      	cbnz	r2, 8054b16 <z_reschedule_irqlock+0xe>
 8054b12:	f7fd bcef 	b.w	80524f4 <arch_swap>
 8054b16:	f383 8811 	msr	BASEPRI, r3
 8054b1a:	f3bf 8f6f 	isb	sy
 8054b1e:	4770      	bx	lr

08054b20 <z_reschedule_unlocked>:
 8054b20:	f04f 0320 	mov.w	r3, #32
 8054b24:	f3ef 8011 	mrs	r0, BASEPRI
 8054b28:	f383 8811 	msr	BASEPRI, r3
 8054b2c:	f3bf 8f6f 	isb	sy
 8054b30:	f7ff bfea 	b.w	8054b08 <z_reschedule_irqlock>

08054b34 <z_priq_dumb_best>:
 8054b34:	4603      	mov	r3, r0
 8054b36:	6800      	ldr	r0, [r0, #0]
 8054b38:	4283      	cmp	r3, r0
 8054b3a:	d003      	beq.n	8054b44 <z_priq_dumb_best+0x10>
 8054b3c:	2800      	cmp	r0, #0
 8054b3e:	bf38      	it	cc
 8054b40:	2000      	movcc	r0, #0
 8054b42:	4770      	bx	lr
 8054b44:	2000      	movs	r0, #0
 8054b46:	4770      	bx	lr

08054b48 <z_unpend_first_thread>:
 8054b48:	b510      	push	{r4, lr}
 8054b4a:	f04f 0320 	mov.w	r3, #32
 8054b4e:	f3ef 8211 	mrs	r2, BASEPRI
 8054b52:	f383 8811 	msr	BASEPRI, r3
 8054b56:	f3bf 8f6f 	isb	sy
 8054b5a:	f7ff ffeb 	bl	8054b34 <z_priq_dumb_best>
 8054b5e:	4604      	mov	r4, r0
 8054b60:	f382 8811 	msr	BASEPRI, r2
 8054b64:	f3bf 8f6f 	isb	sy
 8054b68:	b1b0      	cbz	r0, 8054b98 <z_unpend_first_thread+0x50>
 8054b6a:	f04f 0320 	mov.w	r3, #32
 8054b6e:	f3ef 8111 	mrs	r1, BASEPRI
 8054b72:	f383 8811 	msr	BASEPRI, r3
 8054b76:	f3bf 8f6f 	isb	sy
 8054b7a:	f7ff ffab 	bl	8054ad4 <sys_dlist_remove>
 8054b7e:	7b43      	ldrb	r3, [r0, #13]
 8054b80:	f023 0302 	bic.w	r3, r3, #2
 8054b84:	7343      	strb	r3, [r0, #13]
 8054b86:	2300      	movs	r3, #0
 8054b88:	6083      	str	r3, [r0, #8]
 8054b8a:	f381 8811 	msr	BASEPRI, r1
 8054b8e:	f3bf 8f6f 	isb	sy
 8054b92:	3018      	adds	r0, #24
 8054b94:	f000 f89a 	bl	8054ccc <z_abort_timeout>
 8054b98:	4620      	mov	r0, r4
 8054b9a:	bd10      	pop	{r4, pc}

08054b9c <z_priq_rb_add>:
 8054b9c:	b5b0      	push	{r4, r5, r7, lr}
 8054b9e:	b084      	sub	sp, #16
 8054ba0:	68c2      	ldr	r2, [r0, #12]
 8054ba2:	4604      	mov	r4, r0
 8054ba4:	1c53      	adds	r3, r2, #1
 8054ba6:	60c3      	str	r3, [r0, #12]
 8054ba8:	460d      	mov	r5, r1
 8054baa:	af00      	add	r7, sp, #0
 8054bac:	610a      	str	r2, [r1, #16]
 8054bae:	b9bb      	cbnz	r3, 8054be0 <z_priq_rb_add+0x44>
 8054bb0:	6883      	ldr	r3, [r0, #8]
 8054bb2:	009a      	lsls	r2, r3, #2
 8054bb4:	3207      	adds	r2, #7
 8054bb6:	f022 0207 	bic.w	r2, r2, #7
 8054bba:	3307      	adds	r3, #7
 8054bbc:	ebad 0d02 	sub.w	sp, sp, r2
 8054bc0:	f023 0307 	bic.w	r3, r3, #7
 8054bc4:	f8c7 d004 	str.w	sp, [r7, #4]
 8054bc8:	ebad 0d03 	sub.w	sp, sp, r3
 8054bcc:	f04f 33ff 	mov.w	r3, #4294967295	; 0xffffffff
 8054bd0:	f8c7 d008 	str.w	sp, [r7, #8]
 8054bd4:	60fb      	str	r3, [r7, #12]
 8054bd6:	4620      	mov	r0, r4
 8054bd8:	1d39      	adds	r1, r7, #4
 8054bda:	f7ff fb78 	bl	80542ce <z_rb_foreach_next>
 8054bde:	b930      	cbnz	r0, 8054bee <z_priq_rb_add+0x52>
 8054be0:	4629      	mov	r1, r5
 8054be2:	4620      	mov	r0, r4
 8054be4:	f7ff fa03 	bl	8053fee <rb_insert>
 8054be8:	3710      	adds	r7, #16
 8054bea:	46bd      	mov	sp, r7
 8054bec:	bdb0      	pop	{r4, r5, r7, pc}
 8054bee:	68e3      	ldr	r3, [r4, #12]
 8054bf0:	1c5a      	adds	r2, r3, #1
 8054bf2:	60e2      	str	r2, [r4, #12]
 8054bf4:	6103      	str	r3, [r0, #16]
 8054bf6:	e7ee      	b.n	8054bd6 <z_priq_rb_add+0x3a>

08054bf8 <z_priq_rb_best>:
 8054bf8:	2100      	movs	r1, #0
 8054bfa:	b508      	push	{r3, lr}
 8054bfc:	f7ff f9eb 	bl	8053fd6 <z_rb_get_minmax>
 8054c00:	2800      	cmp	r0, #0
 8054c02:	bf38      	it	cc
 8054c04:	2000      	movcc	r0, #0
 8054c06:	bd08      	pop	{r3, pc}

08054c08 <z_ready_thread>:
 8054c08:	b510      	push	{r4, lr}
 8054c0a:	f04f 0320 	mov.w	r3, #32
 8054c0e:	f3ef 8411 	mrs	r4, BASEPRI
 8054c12:	f383 8811 	msr	BASEPRI, r3
 8054c16:	f3bf 8f6f 	isb	sy
 8054c1a:	f7fe fc8d 	bl	8053538 <ready_thread>
 8054c1e:	f384 8811 	msr	BASEPRI, r4
 8054c22:	f3bf 8f6f 	isb	sy
 8054c26:	bd10      	pop	{r4, pc}

08054c28 <z_thread_timeout>:
 8054c28:	4601      	mov	r1, r0
 8054c2a:	f851 3c10 	ldr.w	r3, [r1, #-16]
 8054c2e:	b510      	push	{r4, lr}
 8054c30:	3818      	subs	r0, #24
 8054c32:	b1b3      	cbz	r3, 8054c62 <z_thread_timeout+0x3a>
 8054c34:	f04f 0320 	mov.w	r3, #32
 8054c38:	f3ef 8411 	mrs	r4, BASEPRI
 8054c3c:	f383 8811 	msr	BASEPRI, r3
 8054c40:	f3bf 8f6f 	isb	sy
 8054c44:	f7ff ff46 	bl	8054ad4 <sys_dlist_remove>
 8054c48:	f811 3c0b 	ldrb.w	r3, [r1, #-11]
 8054c4c:	f023 0302 	bic.w	r3, r3, #2
 8054c50:	f801 3c0b 	strb.w	r3, [r1, #-11]
 8054c54:	2300      	movs	r3, #0
 8054c56:	f841 3c10 	str.w	r3, [r1, #-16]
 8054c5a:	f384 8811 	msr	BASEPRI, r4
 8054c5e:	f3bf 8f6f 	isb	sy
 8054c62:	f811 3c0b 	ldrb.w	r3, [r1, #-11]
 8054c66:	e8bd 4010 	ldmia.w	sp!, {r4, lr}
 8054c6a:	f023 0314 	bic.w	r3, r3, #20
 8054c6e:	f801 3c0b 	strb.w	r3, [r1, #-11]
 8054c72:	f7ff bfc9 	b.w	8054c08 <z_ready_thread>

08054c76 <add_to_waitq_locked>:
 8054c76:	b538      	push	{r3, r4, r5, lr}
 8054c78:	4604      	mov	r4, r0
 8054c7a:	460d      	mov	r5, r1
 8054c7c:	f7fe fd52 	bl	8053724 <unready_thread>
 8054c80:	7b63      	ldrb	r3, [r4, #13]
 8054c82:	f043 0302 	orr.w	r3, r3, #2
 8054c86:	7363      	strb	r3, [r4, #13]
 8054c88:	b1c5      	cbz	r5, 8054cbc <add_to_waitq_locked+0x46>
 8054c8a:	682b      	ldr	r3, [r5, #0]
 8054c8c:	60a5      	str	r5, [r4, #8]
 8054c8e:	429d      	cmp	r5, r3
 8054c90:	bf08      	it	eq
 8054c92:	2300      	moveq	r3, #0
 8054c94:	2b00      	cmp	r3, #0
 8054c96:	bf38      	it	cc
 8054c98:	2300      	movcc	r3, #0
 8054c9a:	b183      	cbz	r3, 8054cbe <add_to_waitq_locked+0x48>
 8054c9c:	f994 100e 	ldrsb.w	r1, [r4, #14]
 8054ca0:	f993 200e 	ldrsb.w	r2, [r3, #14]
 8054ca4:	4291      	cmp	r1, r2
 8054ca6:	db04      	blt.n	8054cb2 <add_to_waitq_locked+0x3c>
 8054ca8:	686a      	ldr	r2, [r5, #4]
 8054caa:	429a      	cmp	r2, r3
 8054cac:	d007      	beq.n	8054cbe <add_to_waitq_locked+0x48>
 8054cae:	681b      	ldr	r3, [r3, #0]
 8054cb0:	e7f3      	b.n	8054c9a <add_to_waitq_locked+0x24>
 8054cb2:	685a      	ldr	r2, [r3, #4]
 8054cb4:	e9c4 3200 	strd	r3, r2, [r4]
 8054cb8:	6014      	str	r4, [r2, #0]
 8054cba:	605c      	str	r4, [r3, #4]
 8054cbc:	bd38      	pop	{r3, r4, r5, pc}
 8054cbe:	686b      	ldr	r3, [r5, #4]
 8054cc0:	6025      	str	r5, [r4, #0]
 8054cc2:	6063      	str	r3, [r4, #4]
 8054cc4:	686b      	ldr	r3, [r5, #4]
 8054cc6:	601c      	str	r4, [r3, #0]
 8054cc8:	606c      	str	r4, [r5, #4]
 8054cca:	e7f7      	b.n	8054cbc <add_to_waitq_locked+0x46>

08054ccc <z_abort_timeout>:
 8054ccc:	b510      	push	{r4, lr}
 8054cce:	f04f 0220 	mov.w	r2, #32
 8054cd2:	f3ef 8411 	mrs	r4, BASEPRI
 8054cd6:	f382 8811 	msr	BASEPRI, r2
 8054cda:	f3bf 8f6f 	isb	sy
 8054cde:	6803      	ldr	r3, [r0, #0]
 8054ce0:	b13b      	cbz	r3, 8054cf2 <z_abort_timeout+0x26>
 8054ce2:	f7fe fe87 	bl	80539f4 <remove_timeout>
 8054ce6:	2000      	movs	r0, #0
 8054ce8:	f384 8811 	msr	BASEPRI, r4
 8054cec:	f3bf 8f6f 	isb	sy
 8054cf0:	bd10      	pop	{r4, pc}
 8054cf2:	f06f 0015 	mvn.w	r0, #21
 8054cf6:	e7f7      	b.n	8054ce8 <z_abort_timeout+0x1c>

08054cf8 <z_get_next_timeout_expiry>:
 8054cf8:	b510      	push	{r4, lr}
 8054cfa:	f04f 0320 	mov.w	r3, #32
 8054cfe:	f3ef 8411 	mrs	r4, BASEPRI
 8054d02:	f383 8811 	msr	BASEPRI, r3
 8054d06:	f3bf 8f6f 	isb	sy
 8054d0a:	f7fe fe8d 	bl	8053a28 <next_timeout>
 8054d0e:	f384 8811 	msr	BASEPRI, r4
 8054d12:	f3bf 8f6f 	isb	sy
 8054d16:	bd10      	pop	{r4, pc}

08054d18 <z_set_timeout_expiry>:
 8054d18:	b570      	push	{r4, r5, r6, lr}
 8054d1a:	4604      	mov	r4, r0
 8054d1c:	460d      	mov	r5, r1
 8054d1e:	f04f 0320 	mov.w	r3, #32
 8054d22:	f3ef 8611 	mrs	r6, BASEPRI
 8054d26:	f383 8811 	msr	BASEPRI, r3
 8054d2a:	f3bf 8f6f 	isb	sy
 8054d2e:	f7fe fe7b 	bl	8053a28 <next_timeout>
 8054d32:	2801      	cmp	r0, #1
 8054d34:	dd05      	ble.n	8054d42 <z_set_timeout_expiry+0x2a>
 8054d36:	42a0      	cmp	r0, r4
 8054d38:	dd03      	ble.n	8054d42 <z_set_timeout_expiry+0x2a>
 8054d3a:	4629      	mov	r1, r5
 8054d3c:	4620      	mov	r0, r4
 8054d3e:	f7fd fb51 	bl	80523e4 <z_clock_set_timeout>
 8054d42:	f386 8811 	msr	BASEPRI, r6
 8054d46:	f3bf 8f6f 	isb	sy
 8054d4a:	bd70      	pop	{r4, r5, r6, pc}

08054d4c <idle>:
 8054d4c:	b508      	push	{r3, lr}
 8054d4e:	f04f 0220 	mov.w	r2, #32
 8054d52:	f3ef 8311 	mrs	r3, BASEPRI
 8054d56:	f382 8811 	msr	BASEPRI, r2
 8054d5a:	f3bf 8f6f 	isb	sy
 8054d5e:	f7ff ffcb 	bl	8054cf8 <z_get_next_timeout_expiry>
 8054d62:	2101      	movs	r1, #1
 8054d64:	2802      	cmp	r0, #2
 8054d66:	bfd8      	it	le
 8054d68:	4608      	movle	r0, r1
 8054d6a:	f7ff ffd5 	bl	8054d18 <z_set_timeout_expiry>
 8054d6e:	f7fd fc6d 	bl	805264c <arch_cpu_idle>
 8054d72:	e7ec      	b.n	8054d4e <idle+0x2>

08054d74 <k_heap_init>:
 8054d74:	b410      	push	{r4}
 8054d76:	f100 040c 	add.w	r4, r0, #12
 8054d7a:	e9c0 4403 	strd	r4, r4, [r0, #12]
 8054d7e:	bc10      	pop	{r4}
 8054d80:	f7ff bb65 	b.w	805444e <sys_heap_init>

08054d84 <_OffsetAbsSyms>:
 8054d84:	4770      	bx	lr
	...

08054d88 <__enter_veneer_veneer>:
 8054d88:	b401      	push	{r0}
 8054d8a:	4802      	ldr	r0, [pc, #8]	; (8054d94 <__enter_veneer_veneer+0xc>)
 8054d8c:	4684      	mov	ip, r0
 8054d8e:	bc01      	pop	{r0}
 8054d90:	4760      	bx	ip
 8054d92:	bf00      	nop
 8054d94:	0c04ecf9 	.word	0x0c04ecf9

08054d98 <__exit_veneer_veneer>:
 8054d98:	b401      	push	{r0}
 8054d9a:	4802      	ldr	r0, [pc, #8]	; (8054da4 <__exit_veneer_veneer+0xc>)
 8054d9c:	4684      	mov	ip, r0
 8054d9e:	bc01      	pop	{r0}
 8054da0:	4760      	bx	ip
 8054da2:	bf00      	nop
 8054da4:	0c04ecd1 	.word	0x0c04ecd1
